
x-boot255-elf32:     file format elf32-littlearm

Disassembly of section .text:

a3f80000 <_ld_text_start>:
a3f80000:	eaffffff 	b	a3f80004 <reset>

a3f80004 <reset>:
a3f80004:	e59fc280 	ldr	ip, [pc, #640]	; a3f8028c <copy_loop+0x1c>
a3f80008:	e3a00000 	mov	r0, #0	; 0x0
a3f8000c:	e58c0004 	str	r0, [ip, #4]
a3f80010:	e58c0008 	str	r0, [ip, #8]
a3f80014:	eb00000d 	bl	a3f80050 <gpio_init>
a3f80018:	eb00002f 	bl	a3f800dc <init_sdram>
a3f8001c:	eb00008f 	bl	a3f80260 <copy_to_ram>
a3f80020:	e3a04703 	mov	r4, #786432	; 0xc0000
a3f80024:	e59f5264 	ldr	r5, [pc, #612]	; a3f80290 <copy_loop+0x20>
a3f80028:	e3a06602 	mov	r6, #2097152	; 0x200000
a3f8002c:	e0866004 	add	r6, r6, r4

a3f80030 <repeat>:
a3f80030:	e8b4078f 	ldmia	r4!, {r0, r1, r2, r3, r7, r8, r9, sl}
a3f80034:	e8a5078f 	stmia	r5!, {r0, r1, r2, r3, r7, r8, r9, sl}
a3f80038:	e1540006 	cmp	r4, r6
a3f8003c:	bafffffb 	blt	a3f80030 <repeat>
a3f80040:	e59fd24c 	ldr	sp, [pc, #588]	; a3f80294 <copy_loop+0x24>
a3f80044:	e59f024c 	ldr	r0, [pc, #588]	; a3f80298 <copy_loop+0x28>
a3f80048:	e1a0f000 	mov	pc, r0

a3f8004c <die>:
a3f8004c:	eafffffe 	b	a3f8004c <die>

a3f80050 <gpio_init>:
a3f80050:	e59fc244 	ldr	ip, [pc, #580]	; a3f8029c <copy_loop+0x2c>
a3f80054:	e3a00102 	mov	r0, #-2147483648	; 0x80000000
a3f80058:	e58c0054 	str	r0, [ip, #84]
a3f8005c:	e59f023c 	ldr	r0, [pc, #572]	; a3f802a0 <copy_loop+0x30>
a3f80060:	e58c0058 	str	r0, [ip, #88]
a3f80064:	e59f0238 	ldr	r0, [pc, #568]	; a3f802a4 <copy_loop+0x34>
a3f80068:	e58c005c 	str	r0, [ip, #92]
a3f8006c:	e59f0234 	ldr	r0, [pc, #564]	; a3f802a8 <copy_loop+0x38>
a3f80070:	e58c0060 	str	r0, [ip, #96]
a3f80074:	e59f0230 	ldr	r0, [pc, #560]	; a3f802ac <copy_loop+0x3c>
a3f80078:	e58c0064 	str	r0, [ip, #100]
a3f8007c:	e3a00002 	mov	r0, #2	; 0x2
a3f80080:	e58c0068 	str	r0, [ip, #104]
a3f80084:	e59f0224 	ldr	r0, [pc, #548]	; a3f802b0 <copy_loop+0x40>
a3f80088:	e58c0018 	str	r0, [ip, #24]
a3f8008c:	e59f0220 	ldr	r0, [pc, #544]	; a3f802b4 <copy_loop+0x44>
a3f80090:	e58c001c 	str	r0, [ip, #28]
a3f80094:	e3a00907 	mov	r0, #114688	; 0x1c000
a3f80098:	e58c0020 	str	r0, [ip, #32]
a3f8009c:	e59f0214 	ldr	r0, [pc, #532]	; a3f802b8 <copy_loop+0x48>
a3f800a0:	e58c0024 	str	r0, [ip, #36]
a3f800a4:	e59f0210 	ldr	r0, [pc, #528]	; a3f802bc <copy_loop+0x4c>
a3f800a8:	e58c0028 	str	r0, [ip, #40]
a3f800ac:	e59f020c 	ldr	r0, [pc, #524]	; a3f802c0 <copy_loop+0x50>
a3f800b0:	e58c002c 	str	r0, [ip, #44]
a3f800b4:	e59f0208 	ldr	r0, [pc, #520]	; a3f802c4 <copy_loop+0x54>
a3f800b8:	e58c000c 	str	r0, [ip, #12]
a3f800bc:	e59f0204 	ldr	r0, [pc, #516]	; a3f802c8 <copy_loop+0x58>
a3f800c0:	e58c0010 	str	r0, [ip, #16]
a3f800c4:	e59f0200 	ldr	r0, [pc, #512]	; a3f802cc <copy_loop+0x5c>
a3f800c8:	e58c0014 	str	r0, [ip, #20]
a3f800cc:	e59f11fc 	ldr	r1, [pc, #508]	; a3f802d0 <copy_loop+0x60>
a3f800d0:	e3a02030 	mov	r2, #48	; 0x30
a3f800d4:	e5812000 	str	r2, [r1]
a3f800d8:	e1a0f00e 	mov	pc, lr

a3f800dc <init_sdram>:
a3f800dc:	e1a0a00e 	mov	sl, lr
a3f800e0:	e59fc1ec 	ldr	ip, [pc, #492]	; a3f802d4 <copy_loop+0x64>
a3f800e4:	e3a00040 	mov	r0, #64	; 0x40
a3f800e8:	e58c0004 	str	r0, [ip, #4]
a3f800ec:	e3a00002 	mov	r0, #2	; 0x2
a3f800f0:	e58c0008 	str	r0, [ip, #8]
a3f800f4:	e59f01dc 	ldr	r0, [pc, #476]	; a3f802d8 <copy_loop+0x68>
a3f800f8:	e58c0000 	str	r0, [ip]
a3f800fc:	e3a01003 	mov	r1, #3	; 0x3
a3f80100:	ee061e10 	mcr	14, 0, r1, cr6, cr0, {0}
a3f80104:	e59f11d0 	ldr	r1, [pc, #464]	; a3f802dc <copy_loop+0x6c>
a3f80108:	e3a00000 	mov	r0, #0	; 0x0
a3f8010c:	e5810000 	str	r0, [r1]
a3f80110:	e3a00c03 	mov	r0, #768	; 0x300

a3f80114 <wait_for_clock>:
a3f80114:	e5912000 	ldr	r2, [r1]
a3f80118:	e1500002 	cmp	r0, r2
a3f8011c:	1afffffc 	bne	a3f80114 <wait_for_clock>
a3f80120:	e3a0c312 	mov	ip, #1207959552	; 0x48000000
a3f80124:	e59f01b4 	ldr	r0, [pc, #436]	; a3f802e0 <copy_loop+0x70>
a3f80128:	e58c0008 	str	r0, [ip, #8]
a3f8012c:	e59f01b0 	ldr	r0, [pc, #432]	; a3f802e4 <copy_loop+0x74>
a3f80130:	e58c000c 	str	r0, [ip, #12]
a3f80134:	e59c000c 	ldr	r0, [ip, #12]
a3f80138:	e59f01a0 	ldr	r0, [pc, #416]	; a3f802e0 <copy_loop+0x70>
a3f8013c:	e58c0010 	str	r0, [ip, #16]
a3f80140:	e59c0010 	ldr	r0, [ip, #16]
a3f80144:	e3a00000 	mov	r0, #0	; 0x0
a3f80148:	e58c0014 	str	r0, [ip, #20]
a3f8014c:	e59f0194 	ldr	r0, [pc, #404]	; a3f802e8 <copy_loop+0x78>
a3f80150:	e58c0028 	str	r0, [ip, #40]
a3f80154:	e59f018c 	ldr	r0, [pc, #396]	; a3f802e8 <copy_loop+0x78>
a3f80158:	e58c002c 	str	r0, [ip, #44]
a3f8015c:	e59f0184 	ldr	r0, [pc, #388]	; a3f802e8 <copy_loop+0x78>
a3f80160:	e58c0030 	str	r0, [ip, #48]
a3f80164:	e59f017c 	ldr	r0, [pc, #380]	; a3f802e8 <copy_loop+0x78>
a3f80168:	e58c0034 	str	r0, [ip, #52]
a3f8016c:	e59f0178 	ldr	r0, [pc, #376]	; a3f802ec <copy_loop+0x7c>
a3f80170:	e58c0038 	str	r0, [ip, #56]
a3f80174:	e59f0170 	ldr	r0, [pc, #368]	; a3f802ec <copy_loop+0x7c>
a3f80178:	e58c003c 	str	r0, [ip, #60]
a3f8017c:	e59f016c 	ldr	r0, [pc, #364]	; a3f802f0 <copy_loop+0x80>
a3f80180:	e59c3004 	ldr	r3, [ip, #4]
a3f80184:	e59f1168 	ldr	r1, [pc, #360]	; a3f802f4 <copy_loop+0x84>
a3f80188:	e0000001 	and	r0, r0, r1
a3f8018c:	e1c33001 	bic	r3, r3, r1
a3f80190:	e3c3350e 	bic	r3, r3, #58720256	; 0x3800000
a3f80194:	e1833000 	orr	r3, r3, r0
a3f80198:	e58c3004 	str	r3, [ip, #4]
a3f8019c:	e59f014c 	ldr	r0, [pc, #332]	; a3f802f0 <copy_loop+0x80>
a3f801a0:	e3a01af6 	mov	r1, #1007616	; 0xf6000
a3f801a4:	e0000001 	and	r0, r0, r1
a3f801a8:	e1c33001 	bic	r3, r3, r1
a3f801ac:	e1833000 	orr	r3, r3, r0
a3f801b0:	e58c3004 	str	r3, [ip, #4]
a3f801b4:	e59c3004 	ldr	r3, [ip, #4]
a3f801b8:	e3c33501 	bic	r3, r3, #4194304	; 0x400000
a3f801bc:	e58c3004 	str	r3, [ip, #4]
a3f801c0:	e59f0128 	ldr	r0, [pc, #296]	; a3f802f0 <copy_loop+0x80>
a3f801c4:	e59f112c 	ldr	r1, [pc, #300]	; a3f802f8 <copy_loop+0x88>
a3f801c8:	e0000001 	and	r0, r0, r1
a3f801cc:	e1833000 	orr	r3, r3, r0
a3f801d0:	e58c3004 	str	r3, [ip, #4]
a3f801d4:	e1a00000 	nop			(mov r0,r0)
a3f801d8:	e1a00000 	nop			(mov r0,r0)
a3f801dc:	e59f0118 	ldr	r0, [pc, #280]	; a3f802fc <copy_loop+0x8c>
a3f801e0:	e3c00003 	bic	r0, r0, #3	; 0x3
a3f801e4:	e3c00803 	bic	r0, r0, #196608	; 0x30000
a3f801e8:	e3c00004 	bic	r0, r0, #4	; 0x4
a3f801ec:	e58c0000 	str	r0, [ip]
a3f801f0:	e59f00e4 	ldr	r0, [pc, #228]	; a3f802dc <copy_loop+0x6c>
a3f801f4:	e3a01000 	mov	r1, #0	; 0x0
a3f801f8:	e5801000 	str	r1, [r0]
a3f801fc:	e3a04c03 	mov	r4, #768	; 0x300

a3f80200 <sdram_dly>:
a3f80200:	e5901000 	ldr	r1, [r0]
a3f80204:	e1540001 	cmp	r4, r1
a3f80208:	cafffffc 	bgt	a3f80200 <sdram_dly>
a3f8020c:	e3a00078 	mov	r0, #120	; 0x78
a3f80210:	ee010f10 	mcr	15, 0, r0, cr1, cr0, {0}
a3f80214:	e3a0020a 	mov	r0, #-1610612736	; 0xa0000000
a3f80218:	e5800000 	str	r0, [r0]
a3f8021c:	e5800000 	str	r0, [r0]
a3f80220:	e5800000 	str	r0, [r0]
a3f80224:	e5800000 	str	r0, [r0]
a3f80228:	e5800000 	str	r0, [r0]
a3f8022c:	e5800000 	str	r0, [r0]
a3f80230:	e5800000 	str	r0, [r0]
a3f80234:	e5800000 	str	r0, [r0]
a3f80238:	e59c0000 	ldr	r0, [ip]
a3f8023c:	e3800001 	orr	r0, r0, #1	; 0x1
a3f80240:	e58c0000 	str	r0, [ip]
a3f80244:	e3a00000 	mov	r0, #0	; 0x0
a3f80248:	e58c0040 	str	r0, [ip, #64]
a3f8024c:	e59c0004 	ldr	r0, [ip, #4]
a3f80250:	e3e0b601 	mvn	fp, #1048576	; 0x100000
a3f80254:	e000000b 	and	r0, r0, fp
a3f80258:	e58c0004 	str	r0, [ip, #4]
a3f8025c:	e1a0f00a 	mov	pc, sl

a3f80260 <copy_to_ram>:
a3f80260:	e1a0800e 	mov	r8, lr
a3f80264:	e3a00000 	mov	r0, #0	; 0x0
a3f80268:	e59f1090 	ldr	r1, [pc, #144]	; a3f80300 <copy_loop+0x90>
a3f8026c:	e59f2090 	ldr	r2, [pc, #144]	; a3f80304 <copy_loop+0x94>

a3f80270 <copy_loop>:
a3f80270:	e5903000 	ldr	r3, [r0]
a3f80274:	e5813000 	str	r3, [r1]
a3f80278:	e2800004 	add	r0, r0, #4	; 0x4
a3f8027c:	e2811004 	add	r1, r1, #4	; 0x4
a3f80280:	e2522004 	subs	r2, r2, #4	; 0x4
a3f80284:	1afffff9 	bne	a3f80270 <copy_loop>
a3f80288:	e1a0f008 	mov	pc, r8
a3f8028c:	40d00000 	sbcmis	r0, r0, r0
a3f80290:	a0008000 	andge	r8, r0, r0
a3f80294:	a4000000 	strge	r0, [r0]
a3f80298:	a3f82028 	mvnges	r2, #40	; 0x28
a3f8029c:	40e00000 	rscmi	r0, r0, r0
a3f802a0:	a5000010 	strge	r0, [r0, -#16]
a3f802a4:	60008018 	andvs	r8, r0, r8, lsl r0
a3f802a8:	aaa5aaaa 	bge	a28ead58 <_ld_text_and_data_size+0xa28e495c>
a3f802ac:	aaa0000a 	bge	a27802dc <_ld_text_and_data_size+0xa2779ee0>
a3f802b0:	00408030 	subeq	r8, r0, r0, lsr r0
a3f802b4:	00bfa882 	adceqs	sl, pc, r2, lsl #17
a3f802b8:	c0031100 	andgt	r1, r3, r0, lsl #2
a3f802bc:	fc400300 	stc2l	3, cr0, [r0]
a3f802c0:	00003fff 	streqd	r3, [r0], -pc
a3f802c4:	c0439330 	subgt	r9, r3, r0, lsr r3
a3f802c8:	fcffab82 	ldc2l	11, cr10, [pc], #520
a3f802cc:	0001ffff 	streqd	pc, [r1], -pc
a3f802d0:	40f00004 	rscmis	r0, r0, r4
a3f802d4:	41300000 	teqmi	r0, r0
a3f802d8:	00000162 	andeq	r0, r0, r2, ror #2
a3f802dc:	40a00010 	adcmi	r0, r0, r0, lsl r0
a3f802e0:	7ff87ff0 	swivc	0x00f87ff0
a3f802e4:	7ff87ff8 	swivc	0x00f87ff8
a3f802e8:	00010504 	andeq	r0, r1, r4, lsl #10
a3f802ec:	00004715 	andeq	r4, r0, r5, lsl r7
a3f802f0:	000bc018 	andeq	ip, fp, r8, lsl r0
a3f802f4:	00000fff 	streqd	r0, [r0], -pc
a3f802f8:	03809000 	orreq	r9, r0, #0	; 0x0
a3f802fc:	00001ac9 	andeq	r1, r0, r9, asr #21
a3f80300:	a3f80000 	mvnges	r0, #0	; 0x0
a3f80304:	000063fc 	streqd	r6, [r0], -ip

a3f80308 <DoBootp>:
a3f80308:	e1a0c00d 	mov	ip, sp
a3f8030c:	e92dd800 	stmdb	sp!, {fp, ip, lr, pc}
a3f80310:	e24cb004 	sub	fp, ip, #4	; 0x4
a3f80314:	eb000000 	bl	a3f8031c <BootpTx>
a3f80318:	e91ba800 	ldmdb	fp, {fp, sp, pc}

a3f8031c <BootpTx>:
a3f8031c:	e1a0c00d 	mov	ip, sp
a3f80320:	e92ddff0 	stmdb	sp!, {r4, r5, r6, r7, r8, r9, sl, fp, ip, lr, pc}
a3f80324:	e24cb004 	sub	fp, ip, #4	; 0x4
a3f80328:	e3a01000 	mov	r1, #0	; 0x0
a3f8032c:	e3a02e26 	mov	r2, #608	; 0x260
a3f80330:	e3a00002 	mov	r0, #2	; 0x2
a3f80334:	e59fa240 	ldr	sl, [pc, #576]	; a3f8057c <BootpTx+0x260>
a3f80338:	e59f5240 	ldr	r5, [pc, #576]	; a3f80580 <BootpTx+0x264>
a3f8033c:	e59f4240 	ldr	r4, [pc, #576]	; a3f80584 <BootpTx+0x268>
a3f80340:	e08fa00a 	add	sl, pc, sl
a3f80344:	e79a3005 	ldr	r3, [sl, r5]
a3f80348:	e24dd008 	sub	sp, sp, #8	; 0x8
a3f8034c:	e1c300b0 	strh	r0, [r3]
a3f80350:	e59f3230 	ldr	r3, [pc, #560]	; a3f80588 <BootpTx+0x26c>
a3f80354:	e79a0004 	ldr	r0, [sl, r4]
a3f80358:	e79a7003 	ldr	r7, [sl, r3]
a3f8035c:	e3a03044 	mov	r3, #68	; 0x44
a3f80360:	e1c030b0 	strh	r3, [r0]
a3f80364:	e1a00007 	mov	r0, r7
a3f80368:	eb000453 	bl	a3f814bc <MemSet>
a3f8036c:	e287002a 	add	r0, r7, #42	; 0x2a
a3f80370:	eb0000d3 	bl	a3f806c4 <SetBootpHeader>
a3f80374:	e2870022 	add	r0, r7, #34	; 0x22
a3f80378:	e59f320c 	ldr	r3, [pc, #524]	; a3f8058c <BootpTx+0x270>
a3f8037c:	e59f220c 	ldr	r2, [pc, #524]	; a3f80590 <BootpTx+0x274>
a3f80380:	e79ac003 	ldr	ip, [sl, r3]
a3f80384:	e79ae002 	ldr	lr, [sl, r2]
a3f80388:	e1dc10b0 	ldrh	r1, [ip]
a3f8038c:	e1de20b0 	ldrh	r2, [lr]
a3f80390:	e3a03f4b 	mov	r3, #300	; 0x12c
a3f80394:	eb00096f 	bl	a3f82958 <SetUdpHeader>
a3f80398:	e287000e 	add	r0, r7, #14	; 0xe
a3f8039c:	e59f31f0 	ldr	r3, [pc, #496]	; a3f80594 <BootpTx+0x278>
a3f803a0:	e59f21f0 	ldr	r2, [pc, #496]	; a3f80598 <BootpTx+0x27c>
a3f803a4:	e79ac003 	ldr	ip, [sl, r3]
a3f803a8:	e79ae002 	ldr	lr, [sl, r2]
a3f803ac:	e59c1000 	ldr	r1, [ip]
a3f803b0:	e59e2000 	ldr	r2, [lr]
a3f803b4:	e3a03f4d 	mov	r3, #308	; 0x134
a3f803b8:	eb00092c 	bl	a3f82870 <SetIPHeader>
a3f803bc:	e59f31d8 	ldr	r3, [pc, #472]	; a3f8059c <BootpTx+0x280>
a3f803c0:	e1a00007 	mov	r0, r7
a3f803c4:	e79a1003 	ldr	r1, [sl, r3]
a3f803c8:	e3a02b02 	mov	r2, #2048	; 0x800
a3f803cc:	eb000911 	bl	a3f82818 <SetEtherHeader>
a3f803d0:	eb0007f4 	bl	a3f823a8 <NetInit>
a3f803d4:	e3500000 	cmp	r0, #0	; 0x0
a3f803d8:	e1a06005 	mov	r6, r5
a3f803dc:	e50b4030 	str	r4, [fp, -#48]
a3f803e0:	0a000064 	beq	a3f80578 <BootpTx+0x25c>
a3f803e4:	e59f31b4 	ldr	r3, [pc, #436]	; a3f805a0 <BootpTx+0x284>
a3f803e8:	e79a0003 	ldr	r0, [sl, r3]
a3f803ec:	e59f41b0 	ldr	r4, [pc, #432]	; a3f805a4 <BootpTx+0x288>
a3f803f0:	eb00057e 	bl	a3f819f0 <printf>
a3f803f4:	e79a0004 	ldr	r0, [sl, r4]
a3f803f8:	eb000984 	bl	a3f82a10 <PrintEthAddr>
a3f803fc:	e59f31a4 	ldr	r3, [pc, #420]	; a3f805a8 <BootpTx+0x28c>
a3f80400:	e79a0003 	ldr	r0, [sl, r3]
a3f80404:	eb000579 	bl	a3f819f0 <printf>
a3f80408:	e59f319c 	ldr	r3, [pc, #412]	; a3f805ac <BootpTx+0x290>
a3f8040c:	e79a0003 	ldr	r0, [sl, r3]
a3f80410:	e3a08000 	mov	r8, #0	; 0x0
a3f80414:	eb000575 	bl	a3f819f0 <printf>
a3f80418:	e50b402c 	str	r4, [fp, -#44]
a3f8041c:	e59f918c 	ldr	r9, [pc, #396]	; a3f805b0 <BootpTx+0x294>
a3f80420:	ea000012 	b	a3f80470 <BootpTx+0x154>
a3f80424:	eb000c8a 	bl	a3f83654 <GetTime>
a3f80428:	e2805001 	add	r5, r0, #1	; 0x1
a3f8042c:	eb000c88 	bl	a3f83654 <GetTime>
a3f80430:	e1500005 	cmp	r0, r5
a3f80434:	2a000008 	bcs	a3f8045c <BootpTx+0x140>
a3f80438:	e79a4006 	ldr	r4, [sl, r6]
a3f8043c:	e1d430f0 	ldrsh	r3, [r4]
a3f80440:	e3530002 	cmp	r3, #2	; 0x2
a3f80444:	1a000004 	bne	a3f8045c <BootpTx+0x140>
a3f80448:	e1a00007 	mov	r0, r7
a3f8044c:	eb0007d0 	bl	a3f82394 <RxPacket>
a3f80450:	e1d430f0 	ldrsh	r3, [r4]
a3f80454:	e3530001 	cmp	r3, #1	; 0x1
a3f80458:	1afffff3 	bne	a3f8042c <BootpTx+0x110>
a3f8045c:	e79a3006 	ldr	r3, [sl, r6]
a3f80460:	e1d320f0 	ldrsh	r2, [r3]
a3f80464:	e3520001 	cmp	r2, #1	; 0x1
a3f80468:	0a00000a 	beq	a3f80498 <BootpTx+0x17c>
a3f8046c:	e2888001 	add	r8, r8, #1	; 0x1
a3f80470:	e3580013 	cmp	r8, #19	; 0x13
a3f80474:	ca000007 	bgt	a3f80498 <BootpTx+0x17c>
a3f80478:	e59f3134 	ldr	r3, [pc, #308]	; a3f805b4 <BootpTx+0x298>
a3f8047c:	e79a0003 	ldr	r0, [sl, r3]
a3f80480:	eb00055a 	bl	a3f819f0 <printf>
a3f80484:	e59f112c 	ldr	r1, [pc, #300]	; a3f805b8 <BootpTx+0x29c>
a3f80488:	e1a00007 	mov	r0, r7
a3f8048c:	eb0007bb 	bl	a3f82380 <TxPacket>
a3f80490:	e3500000 	cmp	r0, #0	; 0x0
a3f80494:	1affffe2 	bne	a3f80424 <BootpTx+0x108>
a3f80498:	e79a7009 	ldr	r7, [sl, r9]
a3f8049c:	e1a00007 	mov	r0, r7
a3f804a0:	eb000552 	bl	a3f819f0 <printf>
a3f804a4:	e79a3006 	ldr	r3, [sl, r6]
a3f804a8:	e3a06000 	mov	r6, #0	; 0x0
a3f804ac:	e51b0030 	ldr	r0, [fp, -#48]
a3f804b0:	e1d350f0 	ldrsh	r5, [r3]
a3f804b4:	e79a2000 	ldr	r2, [sl, r0]
a3f804b8:	e3550001 	cmp	r5, #1	; 0x1
a3f804bc:	e1c260b0 	strh	r6, [r2]
a3f804c0:	0a000004 	beq	a3f804d8 <BootpTx+0x1bc>
a3f804c4:	e59f30f0 	ldr	r3, [pc, #240]	; a3f805bc <BootpTx+0x2a0>
a3f804c8:	e79a0003 	ldr	r0, [sl, r3]
a3f804cc:	eb000547 	bl	a3f819f0 <printf>
a3f804d0:	e1a00006 	mov	r0, r6
a3f804d4:	e91baff0 	ldmdb	fp, {r4, r5, r6, r7, r8, r9, sl, fp, sp, pc}
a3f804d8:	e59f30e0 	ldr	r3, [pc, #224]	; a3f805c0 <BootpTx+0x2a4>
a3f804dc:	e79a0003 	ldr	r0, [sl, r3]
a3f804e0:	eb000542 	bl	a3f819f0 <printf>
a3f804e4:	e59f30d8 	ldr	r3, [pc, #216]	; a3f805c4 <BootpTx+0x2a8>
a3f804e8:	e79a0003 	ldr	r0, [sl, r3]
a3f804ec:	eb00053f 	bl	a3f819f0 <printf>
a3f804f0:	e59f30d0 	ldr	r3, [pc, #208]	; a3f805c8 <BootpTx+0x2ac>
a3f804f4:	e79a0003 	ldr	r0, [sl, r3]
a3f804f8:	eb000944 	bl	a3f82a10 <PrintEthAddr>
a3f804fc:	e1a00007 	mov	r0, r7
a3f80500:	eb00053a 	bl	a3f819f0 <printf>
a3f80504:	e59f30c0 	ldr	r3, [pc, #192]	; a3f805cc <BootpTx+0x2b0>
a3f80508:	e79a0003 	ldr	r0, [sl, r3]
a3f8050c:	eb000537 	bl	a3f819f0 <printf>
a3f80510:	e59f30b8 	ldr	r3, [pc, #184]	; a3f805d0 <BootpTx+0x2b4>
a3f80514:	e79a2003 	ldr	r2, [sl, r3]
a3f80518:	e5920000 	ldr	r0, [r2]
a3f8051c:	eb000921 	bl	a3f829a8 <PrintIPAddr>
a3f80520:	e1a00007 	mov	r0, r7
a3f80524:	eb000531 	bl	a3f819f0 <printf>
a3f80528:	e59f30a4 	ldr	r3, [pc, #164]	; a3f805d4 <BootpTx+0x2b8>
a3f8052c:	e79a0003 	ldr	r0, [sl, r3]
a3f80530:	eb00052e 	bl	a3f819f0 <printf>
a3f80534:	e51b102c 	ldr	r1, [fp, -#44]
a3f80538:	e79a0001 	ldr	r0, [sl, r1]
a3f8053c:	eb000933 	bl	a3f82a10 <PrintEthAddr>
a3f80540:	e1a00007 	mov	r0, r7
a3f80544:	eb000529 	bl	a3f819f0 <printf>
a3f80548:	e59f3088 	ldr	r3, [pc, #136]	; a3f805d8 <BootpTx+0x2bc>
a3f8054c:	e79a0003 	ldr	r0, [sl, r3]
a3f80550:	eb000526 	bl	a3f819f0 <printf>
a3f80554:	e59f3080 	ldr	r3, [pc, #128]	; a3f805dc <BootpTx+0x2c0>
a3f80558:	e79a2003 	ldr	r2, [sl, r3]
a3f8055c:	e5920000 	ldr	r0, [r2]
a3f80560:	eb000910 	bl	a3f829a8 <PrintIPAddr>
a3f80564:	e1a00007 	mov	r0, r7
a3f80568:	eb000520 	bl	a3f819f0 <printf>
a3f8056c:	e1a00007 	mov	r0, r7
a3f80570:	eb00051e 	bl	a3f819f0 <printf>
a3f80574:	e1a00005 	mov	r0, r5
a3f80578:	e91baff0 	ldmdb	fp, {r4, r5, r6, r7, r8, r9, sl, fp, sp, pc}
a3f8057c:	fffffcb8 	swinv	0x00fffcb8
a3f80580:	00004a88 	andeq	r4, r0, r8, lsl #21
a3f80584:	00004a8c 	andeq	r4, r0, ip, lsl #21
a3f80588:	00004a90 	muleq	r0, r0, sl
a3f8058c:	00004a94 	muleq	r0, r4, sl
a3f80590:	00004a98 	muleq	r0, r8, sl
a3f80594:	00004a9c 	muleq	r0, ip, sl
a3f80598:	00004aa0 	andeq	r4, r0, r0, lsr #21
a3f8059c:	00004aa4 	andeq	r4, r0, r4, lsr #21
a3f805a0:	00004aa8 	andeq	r4, r0, r8, lsr #21
a3f805a4:	00004aac 	andeq	r4, r0, ip, lsr #21
a3f805a8:	00004ab0 	streqh	r4, [r0], -r0
a3f805ac:	00004ab4 	streqh	r4, [r0], -r4
a3f805b0:	00004ab8 	streqh	r4, [r0], -r8
a3f805b4:	00004abc 	streqh	r4, [r0], -ip
a3f805b8:	00000156 	andeq	r0, r0, r6, asr r1
a3f805bc:	00004ac0 	andeq	r4, r0, r0, asr #21
a3f805c0:	00004ac4 	andeq	r4, r0, r4, asr #21
a3f805c4:	00004ac8 	andeq	r4, r0, r8, asr #21
a3f805c8:	00004acc 	andeq	r4, r0, ip, asr #21
a3f805cc:	00004ad0 	ldreqd	r4, [r0], -r0
a3f805d0:	00004ad4 	ldreqd	r4, [r0], -r4
a3f805d4:	00004ad8 	ldreqd	r4, [r0], -r8
a3f805d8:	00004adc 	ldreqd	r4, [r0], -ip
a3f805dc:	00004ae0 	andeq	r4, r0, r0, ror #21

a3f805e0 <BootpRx>:
a3f805e0:	e1a0c00d 	mov	ip, sp
a3f805e4:	e92ddcf0 	stmdb	sp!, {r4, r5, r6, r7, sl, fp, ip, lr, pc}
a3f805e8:	e24cb004 	sub	fp, ip, #4	; 0x4
a3f805ec:	e1a01801 	mov	r1, r1, lsl #16
a3f805f0:	e351074b 	cmp	r1, #19660800	; 0x12c0000
a3f805f4:	e59fa0b0 	ldr	sl, [pc, #176]	; a3f806ac <BootpRx+0xcc>
a3f805f8:	e1a04000 	mov	r4, r0
a3f805fc:	e08fa00a 	add	sl, pc, sl
a3f80600:	0a000001 	beq	a3f8060c <BootpRx+0x2c>
a3f80604:	e3a00000 	mov	r0, #0	; 0x0
a3f80608:	e91bacf0 	ldmdb	fp, {r4, r5, r6, r7, sl, fp, sp, pc}
a3f8060c:	e5d43000 	ldrb	r3, [r4]
a3f80610:	e3530002 	cmp	r3, #2	; 0x2
a3f80614:	1afffffa 	bne	a3f80604 <BootpRx+0x24>
a3f80618:	e5d45001 	ldrb	r5, [r4, #1]
a3f8061c:	e3550001 	cmp	r5, #1	; 0x1
a3f80620:	1afffff7 	bne	a3f80604 <BootpRx+0x24>
a3f80624:	e5d46002 	ldrb	r6, [r4, #2]
a3f80628:	e3560006 	cmp	r6, #6	; 0x6
a3f8062c:	1afffff4 	bne	a3f80604 <BootpRx+0x24>
a3f80630:	e59f3078 	ldr	r3, [pc, #120]	; a3f806b0 <BootpRx+0xd0>
a3f80634:	e2840004 	add	r0, r4, #4	; 0x4
a3f80638:	e79a1003 	ldr	r1, [sl, r3]
a3f8063c:	e3a02004 	mov	r2, #4	; 0x4
a3f80640:	eb0003a5 	bl	a3f814dc <MemCmp>
a3f80644:	e2507000 	subs	r7, r0, #0	; 0x0
a3f80648:	1affffed 	bne	a3f80604 <BootpRx+0x24>
a3f8064c:	e59f3060 	ldr	r3, [pc, #96]	; a3f806b4 <BootpRx+0xd4>
a3f80650:	e284001c 	add	r0, r4, #28	; 0x1c
a3f80654:	e79a1003 	ldr	r1, [sl, r3]
a3f80658:	e1a02006 	mov	r2, r6
a3f8065c:	eb00039e 	bl	a3f814dc <MemCmp>
a3f80660:	e3500000 	cmp	r0, #0	; 0x0
a3f80664:	1a00000e 	bne	a3f806a4 <BootpRx+0xc4>
a3f80668:	e59f3048 	ldr	r3, [pc, #72]	; a3f806b8 <BootpRx+0xd8>
a3f8066c:	e2841010 	add	r1, r4, #16	; 0x10
a3f80670:	e79a0003 	ldr	r0, [sl, r3]
a3f80674:	e3a02004 	mov	r2, #4	; 0x4
a3f80678:	eb000387 	bl	a3f8149c <MemCpy>
a3f8067c:	e59f3038 	ldr	r3, [pc, #56]	; a3f806bc <BootpRx+0xdc>
a3f80680:	e2841014 	add	r1, r4, #20	; 0x14
a3f80684:	e79a0003 	ldr	r0, [sl, r3]
a3f80688:	e3a02004 	mov	r2, #4	; 0x4
a3f8068c:	eb000382 	bl	a3f8149c <MemCpy>
a3f80690:	e59f3028 	ldr	r3, [pc, #40]	; a3f806c0 <BootpRx+0xe0>
a3f80694:	e79a2003 	ldr	r2, [sl, r3]
a3f80698:	e1a00005 	mov	r0, r5
a3f8069c:	e1c250b0 	strh	r5, [r2]
a3f806a0:	e91bacf0 	ldmdb	fp, {r4, r5, r6, r7, sl, fp, sp, pc}
a3f806a4:	e1a00007 	mov	r0, r7
a3f806a8:	e91bacf0 	ldmdb	fp, {r4, r5, r6, r7, sl, fp, sp, pc}
a3f806ac:	fffff9fc 	swinv	0x00fff9fc
a3f806b0:	00004ae4 	andeq	r4, r0, r4, ror #21
a3f806b4:	00004aac 	andeq	r4, r0, ip, lsr #21
a3f806b8:	00004ae0 	andeq	r4, r0, r0, ror #21
a3f806bc:	00004ad4 	ldreqd	r4, [r0], -r4
a3f806c0:	00004a88 	andeq	r4, r0, r8, lsl #21

a3f806c4 <SetBootpHeader>:
a3f806c4:	e1a0c00d 	mov	ip, sp
a3f806c8:	e92ddcf0 	stmdb	sp!, {r4, r5, r6, r7, sl, fp, ip, lr, pc}
a3f806cc:	e24cb004 	sub	fp, ip, #4	; 0x4
a3f806d0:	e1a06000 	mov	r6, r0
a3f806d4:	e3a03001 	mov	r3, #1	; 0x1
a3f806d8:	e3a07006 	mov	r7, #6	; 0x6
a3f806dc:	e59fa0d8 	ldr	sl, [pc, #216]	; a3f807bc <SetBootpHeader+0xf8>
a3f806e0:	e3a05000 	mov	r5, #0	; 0x0
a3f806e4:	e5c63000 	strb	r3, [r6]
a3f806e8:	e5c63001 	strb	r3, [r6, #1]
a3f806ec:	e5c67002 	strb	r7, [r6, #2]
a3f806f0:	e5c65003 	strb	r5, [r6, #3]
a3f806f4:	e08fa00a 	add	sl, pc, sl
a3f806f8:	eb000bd5 	bl	a3f83654 <GetTime>
a3f806fc:	e1a04000 	mov	r4, r0
a3f80700:	eb000bd3 	bl	a3f83654 <GetTime>
a3f80704:	e1a03420 	mov	r3, r0, lsr #8
a3f80708:	e286000c 	add	r0, r6, #12	; 0xc
a3f8070c:	e1a01005 	mov	r1, r5
a3f80710:	e3a02004 	mov	r2, #4	; 0x4
a3f80714:	e20440ff 	and	r4, r4, #255	; 0xff
a3f80718:	e1833404 	orr	r3, r3, r4, lsl #8
a3f8071c:	e1c630b8 	strh	r3, [r6, #8]
a3f80720:	eb000365 	bl	a3f814bc <MemSet>
a3f80724:	e2860010 	add	r0, r6, #16	; 0x10
a3f80728:	e1a01005 	mov	r1, r5
a3f8072c:	e3a02004 	mov	r2, #4	; 0x4
a3f80730:	eb000361 	bl	a3f814bc <MemSet>
a3f80734:	e2860014 	add	r0, r6, #20	; 0x14
a3f80738:	e1a01005 	mov	r1, r5
a3f8073c:	e3a02004 	mov	r2, #4	; 0x4
a3f80740:	eb00035d 	bl	a3f814bc <MemSet>
a3f80744:	e2860018 	add	r0, r6, #24	; 0x18
a3f80748:	e1a01005 	mov	r1, r5
a3f8074c:	e3a02004 	mov	r2, #4	; 0x4
a3f80750:	eb000359 	bl	a3f814bc <MemSet>
a3f80754:	e59f3064 	ldr	r3, [pc, #100]	; a3f807c0 <SetBootpHeader+0xfc>
a3f80758:	e286001c 	add	r0, r6, #28	; 0x1c
a3f8075c:	e79a5003 	ldr	r5, [sl, r3]
a3f80760:	e1a02007 	mov	r2, r7
a3f80764:	e1a01005 	mov	r1, r5
a3f80768:	eb00034b 	bl	a3f8149c <MemCpy>
a3f8076c:	e5d53003 	ldrb	r3, [r5, #3]
a3f80770:	e5d52002 	ldrb	r2, [r5, #2]
a3f80774:	e5d51004 	ldrb	r1, [r5, #4]
a3f80778:	e1a03803 	mov	r3, r3, lsl #16
a3f8077c:	e1833c02 	orr	r3, r3, r2, lsl #24
a3f80780:	e1833401 	orr	r3, r3, r1, lsl #8
a3f80784:	e59f2038 	ldr	r2, [pc, #56]	; a3f807c4 <SetBootpHeader+0x100>
a3f80788:	e5d51005 	ldrb	r1, [r5, #5]
a3f8078c:	e79a4002 	ldr	r4, [sl, r2]
a3f80790:	e1833001 	orr	r3, r3, r1
a3f80794:	e5843000 	str	r3, [r4]
a3f80798:	eb000bad 	bl	a3f83654 <GetTime>
a3f8079c:	e1a01004 	mov	r1, r4
a3f807a0:	e5943000 	ldr	r3, [r4]
a3f807a4:	e3a02004 	mov	r2, #4	; 0x4
a3f807a8:	e0833000 	add	r3, r3, r0
a3f807ac:	e0860002 	add	r0, r6, r2
a3f807b0:	e5843000 	str	r3, [r4]
a3f807b4:	eb000338 	bl	a3f8149c <MemCpy>
a3f807b8:	e91bacf0 	ldmdb	fp, {r4, r5, r6, r7, sl, fp, sp, pc}
a3f807bc:	fffff904 	swinv	0x00fff904
a3f807c0:	00004aac 	andeq	r4, r0, ip, lsr #21
a3f807c4:	00004ae4 	andeq	r4, r0, r4, ror #21

a3f807c8 <DisplayPrompt>:
a3f807c8:	e1a0c00d 	mov	ip, sp
a3f807cc:	e92ddc00 	stmdb	sp!, {sl, fp, ip, lr, pc}
a3f807d0:	e24cb004 	sub	fp, ip, #4	; 0x4
a3f807d4:	e59fa020 	ldr	sl, [pc, #32]	; a3f807fc <DisplayPrompt+0x34>
a3f807d8:	e3500000 	cmp	r0, #0	; 0x0
a3f807dc:	e08fa00a 	add	sl, pc, sl
a3f807e0:	1a000003 	bne	a3f807f4 <DisplayPrompt+0x2c>
a3f807e4:	e59f3014 	ldr	r3, [pc, #20]	; a3f80800 <DisplayPrompt+0x38>
a3f807e8:	e79a0003 	ldr	r0, [sl, r3]
a3f807ec:	eb00047f 	bl	a3f819f0 <printf>
a3f807f0:	e91bac00 	ldmdb	fp, {sl, fp, sp, pc}
a3f807f4:	eb00047d 	bl	a3f819f0 <printf>
a3f807f8:	e91bac00 	ldmdb	fp, {sl, fp, sp, pc}
a3f807fc:	fffff81c 	swinv	0x00fff81c
a3f80800:	00004ae8 	andeq	r4, r0, r8, ror #21

a3f80804 <GetCommand>:
a3f80804:	e1a0c00d 	mov	ip, sp
a3f80808:	e92ddff0 	stmdb	sp!, {r4, r5, r6, r7, r8, r9, sl, fp, ip, lr, pc}
a3f8080c:	e24cb004 	sub	fp, ip, #4	; 0x4
a3f80810:	e3a06000 	mov	r6, #0	; 0x0
a3f80814:	e1a05006 	mov	r5, r6
a3f80818:	e1a07000 	mov	r7, r0
a3f8081c:	e1a04002 	mov	r4, r2
a3f80820:	e59fa0d8 	ldr	sl, [pc, #216]	; a3f80900 <GetCommand+0xfc>
a3f80824:	e2419001 	sub	r9, r1, #1	; 0x1
a3f80828:	e08fa00a 	add	sl, pc, sl
a3f8082c:	e24dd00c 	sub	sp, sp, #12	; 0xc
a3f80830:	eb000b87 	bl	a3f83654 <GetTime>
a3f80834:	e1560009 	cmp	r6, r9
a3f80838:	e0800004 	add	r0, r0, r4
a3f8083c:	e50b002c 	str	r0, [fp, -#44]
a3f80840:	aa00002c 	bge	a3f808f8 <GetCommand+0xf4>
a3f80844:	e59f30b8 	ldr	r3, [pc, #184]	; a3f80904 <GetCommand+0x100>
a3f80848:	e24b802d 	sub	r8, fp, #45	; 0x2d
a3f8084c:	e50b3034 	str	r3, [fp, -#52]
a3f80850:	ea000006 	b	a3f80870 <GetCommand+0x6c>
a3f80854:	eb000b7e 	bl	a3f83654 <GetTime>
a3f80858:	e51b302c 	ldr	r3, [fp, -#44]
a3f8085c:	e1500003 	cmp	r0, r3
a3f80860:	9a000002 	bls	a3f80870 <GetCommand+0x6c>
a3f80864:	e1a00006 	mov	r0, r6
a3f80868:	e7c74005 	strb	r4, [r7, r5]
a3f8086c:	e91baff0 	ldmdb	fp, {r4, r5, r6, r7, r8, r9, sl, fp, sp, pc}
a3f80870:	e1a00008 	mov	r0, r8
a3f80874:	eb000989 	bl	a3f82ea0 <SerialInputByte>
a3f80878:	e2504000 	subs	r4, r0, #0	; 0x0
a3f8087c:	0afffff4 	beq	a3f80854 <GetCommand+0x50>
a3f80880:	e55b302d 	ldrb	r3, [fp, -#45]
a3f80884:	e353000a 	cmp	r3, #10	; 0xa
a3f80888:	1353000d 	cmpne	r3, #13	; 0xd
a3f8088c:	1a000006 	bne	a3f808ac <GetCommand+0xa8>
a3f80890:	e59f3070 	ldr	r3, [pc, #112]	; a3f80908 <GetCommand+0x104>
a3f80894:	e79a0003 	ldr	r0, [sl, r3]
a3f80898:	e3a02000 	mov	r2, #0	; 0x0
a3f8089c:	e7c72005 	strb	r2, [r7, r5]
a3f808a0:	eb000452 	bl	a3f819f0 <printf>
a3f808a4:	e1a00006 	mov	r0, r6
a3f808a8:	e91baff0 	ldmdb	fp, {r4, r5, r6, r7, r8, r9, sl, fp, sp, pc}
a3f808ac:	e3530008 	cmp	r3, #8	; 0x8
a3f808b0:	1a000007 	bne	a3f808d4 <GetCommand+0xd0>
a3f808b4:	e3550000 	cmp	r5, #0	; 0x0
a3f808b8:	da00000c 	ble	a3f808f0 <GetCommand+0xec>
a3f808bc:	e59f3048 	ldr	r3, [pc, #72]	; a3f8090c <GetCommand+0x108>
a3f808c0:	e2455001 	sub	r5, r5, #1	; 0x1
a3f808c4:	e79a0003 	ldr	r0, [sl, r3]
a3f808c8:	e2466001 	sub	r6, r6, #1	; 0x1
a3f808cc:	eb000447 	bl	a3f819f0 <printf>
a3f808d0:	ea000006 	b	a3f808f0 <GetCommand+0xec>
a3f808d4:	e7c73005 	strb	r3, [r7, r5]
a3f808d8:	e2855001 	add	r5, r5, #1	; 0x1
a3f808dc:	e51b3034 	ldr	r3, [fp, -#52]
a3f808e0:	e55b102d 	ldrb	r1, [fp, -#45]
a3f808e4:	e79a0003 	ldr	r0, [sl, r3]
a3f808e8:	e2866001 	add	r6, r6, #1	; 0x1
a3f808ec:	eb00043f 	bl	a3f819f0 <printf>
a3f808f0:	e1560009 	cmp	r6, r9
a3f808f4:	baffffdd 	blt	a3f80870 <GetCommand+0x6c>
a3f808f8:	e1a00006 	mov	r0, r6
a3f808fc:	e91baff0 	ldmdb	fp, {r4, r5, r6, r7, r8, r9, sl, fp, sp, pc}
a3f80900:	fffff7d0 	swinv	0x00fff7d0
a3f80904:	00004aec 	andeq	r4, r0, ip, ror #21
a3f80908:	00004af0 	streqd	r4, [r0], -r0
a3f8090c:	00004af4 	streqd	r4, [r0], -r4

a3f80910 <GetArgs>:
a3f80910:	e3a02000 	mov	r2, #0	; 0x0
a3f80914:	e3500000 	cmp	r0, #0	; 0x0
a3f80918:	0a000002 	beq	a3f80928 <GetArgs+0x18>
a3f8091c:	e5d03000 	ldrb	r3, [r0]
a3f80920:	e1530002 	cmp	r3, r2
a3f80924:	1a000004 	bne	a3f8093c <GetArgs+0x2c>
a3f80928:	e1a00002 	mov	r0, r2
a3f8092c:	e1a0f00e 	mov	pc, lr
a3f80930:	e1a00002 	mov	r0, r2
a3f80934:	e7813102 	str	r3, [r1, r2, lsl #2]
a3f80938:	e1a0f00e 	mov	pc, lr
a3f8093c:	e5d03000 	ldrb	r3, [r0]
a3f80940:	e3530009 	cmp	r3, #9	; 0x9
a3f80944:	13530020 	cmpne	r3, #32	; 0x20
a3f80948:	1a000003 	bne	a3f8095c <GetArgs+0x4c>
a3f8094c:	e5f03001 	ldrb	r3, [r0, #1]!
a3f80950:	e3530009 	cmp	r3, #9	; 0x9
a3f80954:	13530020 	cmpne	r3, #32	; 0x20
a3f80958:	0afffffb 	beq	a3f8094c <GetArgs+0x3c>
a3f8095c:	e5d03000 	ldrb	r3, [r0]
a3f80960:	e3530000 	cmp	r3, #0	; 0x0
a3f80964:	0afffff1 	beq	a3f80930 <GetArgs+0x20>
a3f80968:	e7810102 	str	r0, [r1, r2, lsl #2]
a3f8096c:	e5d03000 	ldrb	r3, [r0]
a3f80970:	e2822001 	add	r2, r2, #1	; 0x1
a3f80974:	ea000000 	b	a3f8097c <GetArgs+0x6c>
a3f80978:	e5f03001 	ldrb	r3, [r0, #1]!
a3f8097c:	e3530000 	cmp	r3, #0	; 0x0
a3f80980:	13530020 	cmpne	r3, #32	; 0x20
a3f80984:	0a000001 	beq	a3f80990 <GetArgs+0x80>
a3f80988:	e3530009 	cmp	r3, #9	; 0x9
a3f8098c:	1afffff9 	bne	a3f80978 <GetArgs+0x68>
a3f80990:	e5d03000 	ldrb	r3, [r0]
a3f80994:	e3530000 	cmp	r3, #0	; 0x0
a3f80998:	0affffe4 	beq	a3f80930 <GetArgs+0x20>
a3f8099c:	e3520013 	cmp	r2, #19	; 0x13
a3f809a0:	e3a03000 	mov	r3, #0	; 0x0
a3f809a4:	e4c03001 	strb	r3, [r0], #1
a3f809a8:	daffffe3 	ble	a3f8093c <GetArgs+0x2c>
a3f809ac:	e1a00002 	mov	r0, r2
a3f809b0:	e1a0f00e 	mov	pc, lr

a3f809b4 <DoBootKernel>:
a3f809b4:	e1a0c00d 	mov	ip, sp
a3f809b8:	e92ddc70 	stmdb	sp!, {r4, r5, r6, sl, fp, ip, lr, pc}
a3f809bc:	e24cb004 	sub	fp, ip, #4	; 0x4
a3f809c0:	e1a06001 	mov	r6, r1
a3f809c4:	e59fa068 	ldr	sl, [pc, #104]	; a3f80a34 <DoBootKernel+0x80>
a3f809c8:	e3560001 	cmp	r6, #1	; 0x1
a3f809cc:	13560003 	cmpne	r6, #3	; 0x3
a3f809d0:	e08fa00a 	add	sl, pc, sl
a3f809d4:	0a000005 	beq	a3f809f0 <DoBootKernel+0x3c>
a3f809d8:	e3560004 	cmp	r6, #4	; 0x4
a3f809dc:	0a000003 	beq	a3f809f0 <DoBootKernel+0x3c>
a3f809e0:	e5900008 	ldr	r0, [r0, #8]
a3f809e4:	eb000401 	bl	a3f819f0 <printf>
a3f809e8:	e3a00000 	mov	r0, #0	; 0x0
a3f809ec:	e91bac70 	ldmdb	fp, {r4, r5, r6, sl, fp, sp, pc}
a3f809f0:	e3560001 	cmp	r6, #1	; 0x1
a3f809f4:	1afffff9 	bne	a3f809e0 <DoBootKernel+0x2c>
a3f809f8:	e59f3038 	ldr	r3, [pc, #56]	; a3f80a38 <DoBootKernel+0x84>
a3f809fc:	e3a04000 	mov	r4, #0	; 0x0
a3f80a00:	e79a0003 	ldr	r0, [sl, r3]
a3f80a04:	e3a050c8 	mov	r5, #200	; 0xc8
a3f80a08:	eb0003f8 	bl	a3f819f0 <printf>
a3f80a0c:	e1a00004 	mov	r0, r4
a3f80a10:	e59f2024 	ldr	r2, [pc, #36]	; a3f80a3c <DoBootKernel+0x88>
a3f80a14:	e1a01005 	mov	r1, r5
a3f80a18:	e1a0e00f 	mov	lr, pc
a3f80a1c:	e1a0f002 	mov	pc, r2
a3f80a20:	e59f3018 	ldr	r3, [pc, #24]	; a3f80a40 <DoBootKernel+0x8c>
a3f80a24:	e79a0003 	ldr	r0, [sl, r3]
a3f80a28:	eb0003f0 	bl	a3f819f0 <printf>
a3f80a2c:	e1a00006 	mov	r0, r6
a3f80a30:	e91bac70 	ldmdb	fp, {r4, r5, r6, sl, fp, sp, pc}
a3f80a34:	fffff628 	swinv	0x00fff628
a3f80a38:	00004af8 	streqd	r4, [r0], -r8
a3f80a3c:	a0008000 	andge	r8, r0, r0
a3f80a40:	00004afc 	streqd	r4, [r0], -ip

a3f80a44 <DoResetTerminal>:
a3f80a44:	e1a0c00d 	mov	ip, sp
a3f80a48:	e92ddc70 	stmdb	sp!, {r4, r5, r6, sl, fp, ip, lr, pc}
a3f80a4c:	e24cb004 	sub	fp, ip, #4	; 0x4
a3f80a50:	e3a040c7 	mov	r4, #199	; 0xc7
a3f80a54:	e59fa034 	ldr	sl, [pc, #52]	; a3f80a90 <DoResetTerminal+0x4c>
a3f80a58:	e59f5034 	ldr	r5, [pc, #52]	; a3f80a94 <DoResetTerminal+0x50>
a3f80a5c:	e59f3034 	ldr	r3, [pc, #52]	; a3f80a98 <DoResetTerminal+0x54>
a3f80a60:	e08fa00a 	add	sl, pc, sl
a3f80a64:	e79a0003 	ldr	r0, [sl, r3]
a3f80a68:	e59f602c 	ldr	r6, [pc, #44]	; a3f80a9c <DoResetTerminal+0x58>
a3f80a6c:	eb0003df 	bl	a3f819f0 <printf>
a3f80a70:	e79a0005 	ldr	r0, [sl, r5]
a3f80a74:	eb0003dd 	bl	a3f819f0 <printf>
a3f80a78:	e2544001 	subs	r4, r4, #1	; 0x1
a3f80a7c:	5afffffb 	bpl	a3f80a70 <DoResetTerminal+0x2c>
a3f80a80:	e79a0006 	ldr	r0, [sl, r6]
a3f80a84:	eb0003d9 	bl	a3f819f0 <printf>
a3f80a88:	e3a00001 	mov	r0, #1	; 0x1
a3f80a8c:	e91bac70 	ldmdb	fp, {r4, r5, r6, sl, fp, sp, pc}
a3f80a90:	fffff598 	swinv	0x00fff598
a3f80a94:	00004af0 	streqd	r4, [r0], -r0
a3f80a98:	00004b00 	andeq	r4, r0, r0, lsl #22
a3f80a9c:	00004b04 	andeq	r4, r0, r4, lsl #22

a3f80aa0 <DoReboot>:
a3f80aa0:	e1a0c00d 	mov	ip, sp
a3f80aa4:	e92ddc00 	stmdb	sp!, {sl, fp, ip, lr, pc}
a3f80aa8:	e59fa024 	ldr	sl, [pc, #36]	; a3f80ad4 <DoReboot+0x34>
a3f80aac:	e59f3024 	ldr	r3, [pc, #36]	; a3f80ad8 <DoReboot+0x38>
a3f80ab0:	e08fa00a 	add	sl, pc, sl
a3f80ab4:	e79a0003 	ldr	r0, [sl, r3]
a3f80ab8:	e24cb004 	sub	fp, ip, #4	; 0x4
a3f80abc:	eb0003cb 	bl	a3f819f0 <printf>
a3f80ac0:	e3a03000 	mov	r3, #0	; 0x0
a3f80ac4:	e1a0e00f 	mov	lr, pc
a3f80ac8:	e1a0f003 	mov	pc, r3
a3f80acc:	e3a00001 	mov	r0, #1	; 0x1
a3f80ad0:	e91bac00 	ldmdb	fp, {sl, fp, sp, pc}
a3f80ad4:	fffff548 	swinv	0x00fff548
a3f80ad8:	00004b08 	andeq	r4, r0, r8, lsl #22

a3f80adc <DoReload>:
a3f80adc:	e1a0c00d 	mov	ip, sp
a3f80ae0:	e92ddc70 	stmdb	sp!, {r4, r5, r6, sl, fp, ip, lr, pc}
a3f80ae4:	e24cb004 	sub	fp, ip, #4	; 0x4
a3f80ae8:	e1a06000 	mov	r6, r0
a3f80aec:	e1a04002 	mov	r4, r2
a3f80af0:	e59fa09c 	ldr	sl, [pc, #156]	; a3f80b94 <DoReload+0xb8>
a3f80af4:	e59f309c 	ldr	r3, [pc, #156]	; a3f80b98 <DoReload+0xbc>
a3f80af8:	e08fa00a 	add	sl, pc, sl
a3f80afc:	e79a1003 	ldr	r1, [sl, r3]
a3f80b00:	e5940004 	ldr	r0, [r4, #4]
a3f80b04:	e3a05000 	mov	r5, #0	; 0x0
a3f80b08:	eb0002ac 	bl	a3f815c0 <StrCmp>
a3f80b0c:	e1500005 	cmp	r0, r5
a3f80b10:	1a000006 	bne	a3f80b30 <DoReload+0x54>
a3f80b14:	e2855703 	add	r5, r5, #786432	; 0xc0000
a3f80b18:	e59f307c 	ldr	r3, [pc, #124]	; a3f80b9c <DoReload+0xc0>
a3f80b1c:	e3a06602 	mov	r6, #2097152	; 0x200000
a3f80b20:	e79a0003 	ldr	r0, [sl, r3]
a3f80b24:	e59f4074 	ldr	r4, [pc, #116]	; a3f80ba0 <DoReload+0xc4>
a3f80b28:	eb0003b0 	bl	a3f819f0 <printf>
a3f80b2c:	ea00000f 	b	a3f80b70 <DoReload+0x94>
a3f80b30:	e59f306c 	ldr	r3, [pc, #108]	; a3f80ba4 <DoReload+0xc8>
a3f80b34:	e5940004 	ldr	r0, [r4, #4]
a3f80b38:	e79a1003 	ldr	r1, [sl, r3]
a3f80b3c:	eb00029f 	bl	a3f815c0 <StrCmp>
a3f80b40:	e3500000 	cmp	r0, #0	; 0x0
a3f80b44:	0a000003 	beq	a3f80b58 <DoReload+0x7c>
a3f80b48:	e5960008 	ldr	r0, [r6, #8]
a3f80b4c:	eb0003a7 	bl	a3f819f0 <printf>
a3f80b50:	e1a00005 	mov	r0, r5
a3f80b54:	e91bac70 	ldmdb	fp, {r4, r5, r6, sl, fp, sp, pc}
a3f80b58:	e3a0570b 	mov	r5, #2883584	; 0x2c0000
a3f80b5c:	e59f3044 	ldr	r3, [pc, #68]	; a3f80ba8 <DoReload+0xcc>
a3f80b60:	e3a044a1 	mov	r4, #-1593835520	; 0xa1000000
a3f80b64:	e79a0003 	ldr	r0, [sl, r3]
a3f80b68:	e3a06832 	mov	r6, #3276800	; 0x320000
a3f80b6c:	eb00039f 	bl	a3f819f0 <printf>
a3f80b70:	e1a00004 	mov	r0, r4
a3f80b74:	e1a01005 	mov	r1, r5
a3f80b78:	e1a02126 	mov	r2, r6, lsr #2
a3f80b7c:	eb00023d 	bl	a3f81478 <MemCpy32>
a3f80b80:	e59f3024 	ldr	r3, [pc, #36]	; a3f80bac <DoReload+0xd0>
a3f80b84:	e79a0003 	ldr	r0, [sl, r3]
a3f80b88:	eb000398 	bl	a3f819f0 <printf>
a3f80b8c:	e3a00001 	mov	r0, #1	; 0x1
a3f80b90:	e91bac70 	ldmdb	fp, {r4, r5, r6, sl, fp, sp, pc}
a3f80b94:	fffff500 	swinv	0x00fff500
a3f80b98:	00004b0c 	andeq	r4, r0, ip, lsl #22
a3f80b9c:	00004b10 	andeq	r4, r0, r0, lsl fp
a3f80ba0:	a0008000 	andge	r8, r0, r0
a3f80ba4:	00004b14 	andeq	r4, r0, r4, lsl fp
a3f80ba8:	00004b18 	andeq	r4, r0, r8, lsl fp
a3f80bac:	00004b1c 	andeq	r4, r0, ip, lsl fp

a3f80bb0 <ClearLine>:
a3f80bb0:	e1a0c00d 	mov	ip, sp
a3f80bb4:	e92ddc00 	stmdb	sp!, {sl, fp, ip, lr, pc}
a3f80bb8:	e59fa014 	ldr	sl, [pc, #20]	; a3f80bd4 <ClearLine+0x24>
a3f80bbc:	e59f3014 	ldr	r3, [pc, #20]	; a3f80bd8 <ClearLine+0x28>
a3f80bc0:	e08fa00a 	add	sl, pc, sl
a3f80bc4:	e79a0003 	ldr	r0, [sl, r3]
a3f80bc8:	e24cb004 	sub	fp, ip, #4	; 0x4
a3f80bcc:	eb000387 	bl	a3f819f0 <printf>
a3f80bd0:	e91bac00 	ldmdb	fp, {sl, fp, sp, pc}
a3f80bd4:	fffff438 	swinv	0x00fff438
a3f80bd8:	00004b20 	andeq	r4, r0, r0, lsr #22

a3f80bdc <DoPrintStatus>:
a3f80bdc:	e1a0c00d 	mov	ip, sp
a3f80be0:	e92ddc00 	stmdb	sp!, {sl, fp, ip, lr, pc}
a3f80be4:	e59fa024 	ldr	sl, [pc, #36]	; a3f80c10 <DoPrintStatus+0x34>
a3f80be8:	e59f3024 	ldr	r3, [pc, #36]	; a3f80c14 <DoPrintStatus+0x38>
a3f80bec:	e08fa00a 	add	sl, pc, sl
a3f80bf0:	e79a0003 	ldr	r0, [sl, r3]
a3f80bf4:	e24cb004 	sub	fp, ip, #4	; 0x4
a3f80bf8:	eb00037c 	bl	a3f819f0 <printf>
a3f80bfc:	e59f3014 	ldr	r3, [pc, #20]	; a3f80c18 <DoPrintStatus+0x3c>
a3f80c00:	e79a0003 	ldr	r0, [sl, r3]
a3f80c04:	eb000379 	bl	a3f819f0 <printf>
a3f80c08:	e3a00001 	mov	r0, #1	; 0x1
a3f80c0c:	e91bac00 	ldmdb	fp, {sl, fp, sp, pc}
a3f80c10:	fffff40c 	swinv	0x00fff40c
a3f80c14:	00004b24 	andeq	r4, r0, r4, lsr #22
a3f80c18:	00004b28 	andeq	r4, r0, r8, lsr #22

a3f80c1c <DoTest>:
a3f80c1c:	e3a00001 	mov	r0, #1	; 0x1
a3f80c20:	e1a0f00e 	mov	pc, lr

a3f80c24 <DoWriteToFlashBlocks>:
a3f80c24:	e1a0c00d 	mov	ip, sp
a3f80c28:	e92ddc70 	stmdb	sp!, {r4, r5, r6, sl, fp, ip, lr, pc}
a3f80c2c:	e24cb004 	sub	fp, ip, #4	; 0x4
a3f80c30:	e3510002 	cmp	r1, #2	; 0x2
a3f80c34:	e3a06000 	mov	r6, #0	; 0x0
a3f80c38:	e1a05000 	mov	r5, r0
a3f80c3c:	e59fa25c 	ldr	sl, [pc, #604]	; a3f80ea0 <DoWriteToFlashBlocks+0x27c>
a3f80c40:	e1a04002 	mov	r4, r2
a3f80c44:	e08fa00a 	add	sl, pc, sl
a3f80c48:	e24dd00c 	sub	sp, sp, #12	; 0xc
a3f80c4c:	e50b6020 	str	r6, [fp, -#32]
a3f80c50:	e50b6024 	str	r6, [fp, -#36]
a3f80c54:	0a000002 	beq	a3f80c64 <DoWriteToFlashBlocks+0x40>
a3f80c58:	e3510004 	cmp	r1, #4	; 0x4
a3f80c5c:	0a000041 	beq	a3f80d68 <DoWriteToFlashBlocks+0x144>
a3f80c60:	ea00003c 	b	a3f80d58 <DoWriteToFlashBlocks+0x134>
a3f80c64:	e59f3238 	ldr	r3, [pc, #568]	; a3f80ea4 <DoWriteToFlashBlocks+0x280>
a3f80c68:	e5940004 	ldr	r0, [r4, #4]
a3f80c6c:	e79a1003 	ldr	r1, [sl, r3]
a3f80c70:	eb000252 	bl	a3f815c0 <StrCmp>
a3f80c74:	e3500000 	cmp	r0, #0	; 0x0
a3f80c78:	1a000009 	bne	a3f80ca4 <DoWriteToFlashBlocks+0x80>
a3f80c7c:	e59f2224 	ldr	r2, [pc, #548]	; a3f80ea8 <DoWriteToFlashBlocks+0x284>
a3f80c80:	e3a03703 	mov	r3, #786432	; 0xc0000
a3f80c84:	e50b3020 	str	r3, [fp, -#32]
a3f80c88:	e59f121c 	ldr	r1, [pc, #540]	; a3f80eac <DoWriteToFlashBlocks+0x288>
a3f80c8c:	e79a0002 	ldr	r0, [sl, r2]
a3f80c90:	e2833705 	add	r3, r3, #1310720	; 0x140000
a3f80c94:	e50b3028 	str	r3, [fp, -#40]
a3f80c98:	e50b1024 	str	r1, [fp, -#36]
a3f80c9c:	eb000353 	bl	a3f819f0 <printf>
a3f80ca0:	ea00004a 	b	a3f80dd0 <DoWriteToFlashBlocks+0x1ac>
a3f80ca4:	e59f3204 	ldr	r3, [pc, #516]	; a3f80eb0 <DoWriteToFlashBlocks+0x28c>
a3f80ca8:	e5940004 	ldr	r0, [r4, #4]
a3f80cac:	e79a1003 	ldr	r1, [sl, r3]
a3f80cb0:	eb000242 	bl	a3f815c0 <StrCmp>
a3f80cb4:	e3500000 	cmp	r0, #0	; 0x0
a3f80cb8:	1a000007 	bne	a3f80cdc <DoWriteToFlashBlocks+0xb8>
a3f80cbc:	e3a0370b 	mov	r3, #2883584	; 0x2c0000
a3f80cc0:	e50b3020 	str	r3, [fp, -#32]
a3f80cc4:	e59f21e8 	ldr	r2, [pc, #488]	; a3f80eb4 <DoWriteToFlashBlocks+0x290>
a3f80cc8:	e3a0320a 	mov	r3, #-1610612736	; 0xa0000000
a3f80ccc:	e50b3024 	str	r3, [fp, -#36]
a3f80cd0:	e79a0002 	ldr	r0, [sl, r2]
a3f80cd4:	e3a0361d 	mov	r3, #30408704	; 0x1d00000
a3f80cd8:	ea00001b 	b	a3f80d4c <DoWriteToFlashBlocks+0x128>
a3f80cdc:	e59f31d4 	ldr	r3, [pc, #468]	; a3f80eb8 <DoWriteToFlashBlocks+0x294>
a3f80ce0:	e5940004 	ldr	r0, [r4, #4]
a3f80ce4:	e79a1003 	ldr	r1, [sl, r3]
a3f80ce8:	eb000234 	bl	a3f815c0 <StrCmp>
a3f80cec:	e3500000 	cmp	r0, #0	; 0x0
a3f80cf0:	1a000008 	bne	a3f80d18 <DoWriteToFlashBlocks+0xf4>
a3f80cf4:	e59f31c0 	ldr	r3, [pc, #448]	; a3f80ebc <DoWriteToFlashBlocks+0x298>
a3f80cf8:	e50b0020 	str	r0, [fp, -#32]
a3f80cfc:	e59f21bc 	ldr	r2, [pc, #444]	; a3f80ec0 <DoWriteToFlashBlocks+0x29c>
a3f80d00:	e79a0003 	ldr	r0, [sl, r3]
a3f80d04:	e3a03701 	mov	r3, #262144	; 0x40000
a3f80d08:	e50b3028 	str	r3, [fp, -#40]
a3f80d0c:	e50b2024 	str	r2, [fp, -#36]
a3f80d10:	eb000336 	bl	a3f819f0 <printf>
a3f80d14:	ea00002d 	b	a3f80dd0 <DoWriteToFlashBlocks+0x1ac>
a3f80d18:	e59f31a4 	ldr	r3, [pc, #420]	; a3f80ec4 <DoWriteToFlashBlocks+0x2a0>
a3f80d1c:	e5940004 	ldr	r0, [r4, #4]
a3f80d20:	e79a1003 	ldr	r1, [sl, r3]
a3f80d24:	eb000225 	bl	a3f815c0 <StrCmp>
a3f80d28:	e3500000 	cmp	r0, #0	; 0x0
a3f80d2c:	1a000009 	bne	a3f80d58 <DoWriteToFlashBlocks+0x134>
a3f80d30:	e3a0370b 	mov	r3, #2883584	; 0x2c0000
a3f80d34:	e50b3020 	str	r3, [fp, -#32]
a3f80d38:	e59f2188 	ldr	r2, [pc, #392]	; a3f80ec8 <DoWriteToFlashBlocks+0x2a4>
a3f80d3c:	e3a034a1 	mov	r3, #-1593835520	; 0xa1000000
a3f80d40:	e50b3024 	str	r3, [fp, -#36]
a3f80d44:	e79a0002 	ldr	r0, [sl, r2]
a3f80d48:	e3a03832 	mov	r3, #3276800	; 0x320000
a3f80d4c:	e50b3028 	str	r3, [fp, -#40]
a3f80d50:	eb000326 	bl	a3f819f0 <printf>
a3f80d54:	ea00001d 	b	a3f80dd0 <DoWriteToFlashBlocks+0x1ac>
a3f80d58:	e5950008 	ldr	r0, [r5, #8]
a3f80d5c:	eb000323 	bl	a3f819f0 <printf>
a3f80d60:	e3a00000 	mov	r0, #0	; 0x0
a3f80d64:	e91bac70 	ldmdb	fp, {r4, r5, r6, sl, fp, sp, pc}
a3f80d68:	e24b1020 	sub	r1, fp, #32	; 0x20
a3f80d6c:	e5940004 	ldr	r0, [r4, #4]
a3f80d70:	e3a02020 	mov	r2, #32	; 0x20
a3f80d74:	eb000227 	bl	a3f81618 <HexToInt>
a3f80d78:	e3500000 	cmp	r0, #0	; 0x0
a3f80d7c:	0afffff5 	beq	a3f80d58 <DoWriteToFlashBlocks+0x134>
a3f80d80:	e24b1024 	sub	r1, fp, #36	; 0x24
a3f80d84:	e5940008 	ldr	r0, [r4, #8]
a3f80d88:	e3a02020 	mov	r2, #32	; 0x20
a3f80d8c:	eb000221 	bl	a3f81618 <HexToInt>
a3f80d90:	e3500000 	cmp	r0, #0	; 0x0
a3f80d94:	0affffef 	beq	a3f80d58 <DoWriteToFlashBlocks+0x134>
a3f80d98:	e24b1028 	sub	r1, fp, #40	; 0x28
a3f80d9c:	e594000c 	ldr	r0, [r4, #12]
a3f80da0:	e3a02020 	mov	r2, #32	; 0x20
a3f80da4:	eb00021b 	bl	a3f81618 <HexToInt>
a3f80da8:	e3500000 	cmp	r0, #0	; 0x0
a3f80dac:	0affffe9 	beq	a3f80d58 <DoWriteToFlashBlocks+0x134>
a3f80db0:	e51b3020 	ldr	r3, [fp, -#32]
a3f80db4:	e3c334ff 	bic	r3, r3, #-16777216	; 0xff000000
a3f80db8:	e3c3373f 	bic	r3, r3, #16515072	; 0xfc0000
a3f80dbc:	e3530000 	cmp	r3, #0	; 0x0
a3f80dc0:	0a000002 	beq	a3f80dd0 <DoWriteToFlashBlocks+0x1ac>
a3f80dc4:	e59f3100 	ldr	r3, [pc, #256]	; a3f80ecc <DoWriteToFlashBlocks+0x2a8>
a3f80dc8:	e79a0003 	ldr	r0, [sl, r3]
a3f80dcc:	eaffffe2 	b	a3f80d5c <DoWriteToFlashBlocks+0x138>
a3f80dd0:	e51b2020 	ldr	r2, [fp, -#32]
a3f80dd4:	e59f30f4 	ldr	r3, [pc, #244]	; a3f80ed0 <DoWriteToFlashBlocks+0x2ac>
a3f80dd8:	e51bc028 	ldr	ip, [fp, -#40]
a3f80ddc:	e1a01002 	mov	r1, r2
a3f80de0:	e082200c 	add	r2, r2, ip
a3f80de4:	e79a0003 	ldr	r0, [sl, r3]
a3f80de8:	e2422001 	sub	r2, r2, #1	; 0x1
a3f80dec:	eb0002ff 	bl	a3f819f0 <printf>
a3f80df0:	e51b0020 	ldr	r0, [fp, -#32]
a3f80df4:	e51b1028 	ldr	r1, [fp, -#40]
a3f80df8:	eb000066 	bl	a3f80f98 <EraseFlashBlocks>
a3f80dfc:	e3500000 	cmp	r0, #0	; 0x0
a3f80e00:	0a000025 	beq	a3f80e9c <DoWriteToFlashBlocks+0x278>
a3f80e04:	e59f30c8 	ldr	r3, [pc, #200]	; a3f80ed4 <DoWriteToFlashBlocks+0x2b0>
a3f80e08:	e79a0003 	ldr	r0, [sl, r3]
a3f80e0c:	e59f40c4 	ldr	r4, [pc, #196]	; a3f80ed8 <DoWriteToFlashBlocks+0x2b4>
a3f80e10:	eb0002f6 	bl	a3f819f0 <printf>
a3f80e14:	e59f30c0 	ldr	r3, [pc, #192]	; a3f80edc <DoWriteToFlashBlocks+0x2b8>
a3f80e18:	e59f50c0 	ldr	r5, [pc, #192]	; a3f80ee0 <DoWriteToFlashBlocks+0x2bc>
a3f80e1c:	e79a0003 	ldr	r0, [sl, r3]
a3f80e20:	e59f60bc 	ldr	r6, [pc, #188]	; a3f80ee4 <DoWriteToFlashBlocks+0x2c0>
a3f80e24:	eb0002f1 	bl	a3f819f0 <printf>
a3f80e28:	e79a0004 	ldr	r0, [sl, r4]
a3f80e2c:	e51b1020 	ldr	r1, [fp, -#32]
a3f80e30:	eb0002ee 	bl	a3f819f0 <printf>
a3f80e34:	e51b0020 	ldr	r0, [fp, -#32]
a3f80e38:	e51b1024 	ldr	r1, [fp, -#36]
a3f80e3c:	eb00002a 	bl	a3f80eec <WriteToFlashBuffer>
a3f80e40:	e3500000 	cmp	r0, #0	; 0x0
a3f80e44:	0a00000b 	beq	a3f80e78 <DoWriteToFlashBlocks+0x254>
a3f80e48:	e51b3020 	ldr	r3, [fp, -#32]
a3f80e4c:	e51b2024 	ldr	r2, [fp, -#36]
a3f80e50:	e2833701 	add	r3, r3, #262144	; 0x40000
a3f80e54:	e2822701 	add	r2, r2, #262144	; 0x40000
a3f80e58:	e50b3020 	str	r3, [fp, -#32]
a3f80e5c:	e50b2024 	str	r2, [fp, -#36]
a3f80e60:	ebffff52 	bl	a3f80bb0 <ClearLine>
a3f80e64:	e51b3028 	ldr	r3, [fp, -#40]
a3f80e68:	e2433701 	sub	r3, r3, #262144	; 0x40000
a3f80e6c:	e3530000 	cmp	r3, #0	; 0x0
a3f80e70:	e50b3028 	str	r3, [fp, -#40]
a3f80e74:	caffffeb 	bgt	a3f80e28 <DoWriteToFlashBlocks+0x204>
a3f80e78:	e79a0005 	ldr	r0, [sl, r5]
a3f80e7c:	e51b1020 	ldr	r1, [fp, -#32]
a3f80e80:	eb0002da 	bl	a3f819f0 <printf>
a3f80e84:	e79a0006 	ldr	r0, [sl, r6]
a3f80e88:	eb0002d8 	bl	a3f819f0 <printf>
a3f80e8c:	e51b2020 	ldr	r2, [fp, -#32]
a3f80e90:	e59f3050 	ldr	r3, [pc, #80]	; a3f80ee8 <DoWriteToFlashBlocks+0x2c4>
a3f80e94:	e3a00001 	mov	r0, #1	; 0x1
a3f80e98:	e5823000 	str	r3, [r2]
a3f80e9c:	e91bac70 	ldmdb	fp, {r4, r5, r6, sl, fp, sp, pc}
a3f80ea0:	fffff3b4 	swinv	0x00fff3b4
a3f80ea4:	00004b2c 	andeq	r4, r0, ip, lsr #22
a3f80ea8:	00004b30 	andeq	r4, r0, r0, lsr fp
a3f80eac:	a0008000 	andge	r8, r0, r0
a3f80eb0:	00004b34 	andeq	r4, r0, r4, lsr fp
a3f80eb4:	00004b38 	andeq	r4, r0, r8, lsr fp
a3f80eb8:	00004b3c 	andeq	r4, r0, ip, lsr fp
a3f80ebc:	00004b40 	andeq	r4, r0, r0, asr #22
a3f80ec0:	a1ff0000 	mvnges	r0, r0
a3f80ec4:	00004b44 	andeq	r4, r0, r4, asr #22
a3f80ec8:	00004b48 	andeq	r4, r0, r8, asr #22
a3f80ecc:	00004b4c 	andeq	r4, r0, ip, asr #22
a3f80ed0:	00004b50 	andeq	r4, r0, r0, asr fp
a3f80ed4:	00004b54 	andeq	r4, r0, r4, asr fp
a3f80ed8:	00004b58 	andeq	r4, r0, r8, asr fp
a3f80edc:	00004b5c 	andeq	r4, r0, ip, asr fp
a3f80ee0:	00004b60 	andeq	r4, r0, r0, ror #22
a3f80ee4:	00004b64 	andeq	r4, r0, r4, ror #22
a3f80ee8:	00ff00ff 	ldreqsh	r0, [pc, #15]	; a3f80eff <WriteToFlashBuffer+0x13>

a3f80eec <WriteToFlashBuffer>:
a3f80eec:	e3a0c000 	mov	ip, #0	; 0x0
a3f80ef0:	e92d43f0 	stmdb	sp!, {r4, r5, r6, r7, r8, r9, lr}
a3f80ef4:	e3a03010 	mov	r3, #16	; 0x10
a3f80ef8:	e1a09313 	mov	r9, r3, lsl r3
a3f80efc:	e2433001 	sub	r3, r3, #1	; 0x1
a3f80f00:	e1838803 	orr	r8, r3, r3, lsl #16
a3f80f04:	e59f4078 	ldr	r4, [pc, #120]	; a3f80f84 <WriteToFlashBuffer+0x98>
a3f80f08:	e59fe078 	ldr	lr, [pc, #120]	; a3f80f88 <WriteToFlashBuffer+0x9c>
a3f80f0c:	e59f7078 	ldr	r7, [pc, #120]	; a3f80f8c <WriteToFlashBuffer+0xa0>
a3f80f10:	e59f6078 	ldr	r6, [pc, #120]	; a3f80f90 <WriteToFlashBuffer+0xa4>
a3f80f14:	e59f5078 	ldr	r5, [pc, #120]	; a3f80f94 <WriteToFlashBuffer+0xa8>
a3f80f18:	e1a02829 	mov	r2, r9, lsr #16
a3f80f1c:	e5804000 	str	r4, [r0]
a3f80f20:	e5903000 	ldr	r3, [r0]
a3f80f24:	e003300e 	and	r3, r3, lr
a3f80f28:	e153000e 	cmp	r3, lr
a3f80f2c:	1afffffa 	bne	a3f80f1c <WriteToFlashBuffer+0x30>
a3f80f30:	e2422001 	sub	r2, r2, #1	; 0x1
a3f80f34:	e3720001 	cmn	r2, #1	; 0x1
a3f80f38:	e5808000 	str	r8, [r0]
a3f80f3c:	0a000005 	beq	a3f80f58 <WriteToFlashBuffer+0x6c>
a3f80f40:	e2422001 	sub	r2, r2, #1	; 0x1
a3f80f44:	e4913004 	ldr	r3, [r1], #4
a3f80f48:	e3720001 	cmn	r2, #1	; 0x1
a3f80f4c:	e780300c 	str	r3, [r0, ip]
a3f80f50:	e28cc004 	add	ip, ip, #4	; 0x4
a3f80f54:	1afffff9 	bne	a3f80f40 <WriteToFlashBuffer+0x54>
a3f80f58:	e5807000 	str	r7, [r0]
a3f80f5c:	e59f2024 	ldr	r2, [pc, #36]	; a3f80f88 <WriteToFlashBuffer+0x9c>
a3f80f60:	e5903000 	ldr	r3, [r0]
a3f80f64:	e0033002 	and	r3, r3, r2
a3f80f68:	e1530002 	cmp	r3, r2
a3f80f6c:	1afffffb 	bne	a3f80f60 <WriteToFlashBuffer+0x74>
a3f80f70:	e15c0005 	cmp	ip, r5
a3f80f74:	e5806000 	str	r6, [r0]
a3f80f78:	9affffe6 	bls	a3f80f18 <WriteToFlashBuffer+0x2c>
a3f80f7c:	e3a00001 	mov	r0, #1	; 0x1
a3f80f80:	e8bd83f0 	ldmia	sp!, {r4, r5, r6, r7, r8, r9, pc}
a3f80f84:	00e800e8 	rsceq	r0, r8, r8, ror #1
a3f80f88:	00800080 	addeq	r0, r0, r0, lsl #1
a3f80f8c:	00d000d0 	ldreqsb	r0, [r0]
a3f80f90:	00ff00ff 	ldreqsh	r0, [pc, #15]	; a3f80fa7 <EraseFlashBlocks+0xf>
a3f80f94:	0003ffff 	streqd	pc, [r3], -pc

a3f80f98 <EraseFlashBlocks>:
a3f80f98:	e1a0c00d 	mov	ip, sp
a3f80f9c:	e92ddc70 	stmdb	sp!, {r4, r5, r6, sl, fp, ip, lr, pc}
a3f80fa0:	e24cb004 	sub	fp, ip, #4	; 0x4
a3f80fa4:	e1a04000 	mov	r4, r0
a3f80fa8:	e3c11003 	bic	r1, r1, #3	; 0x3
a3f80fac:	e0805001 	add	r5, r0, r1
a3f80fb0:	e59fa04c 	ldr	sl, [pc, #76]	; a3f81004 <EraseFlashBlocks+0x6c>
a3f80fb4:	e1540005 	cmp	r4, r5
a3f80fb8:	e08fa00a 	add	sl, pc, sl
a3f80fbc:	2a00000b 	bcs	a3f80ff0 <EraseFlashBlocks+0x58>
a3f80fc0:	e59f6040 	ldr	r6, [pc, #64]	; a3f81008 <EraseFlashBlocks+0x70>
a3f80fc4:	ebfffef9 	bl	a3f80bb0 <ClearLine>
a3f80fc8:	e79a0006 	ldr	r0, [sl, r6]
a3f80fcc:	e1a01004 	mov	r1, r4
a3f80fd0:	eb000286 	bl	a3f819f0 <printf>
a3f80fd4:	e1a00004 	mov	r0, r4
a3f80fd8:	eb000072 	bl	a3f811a8 <EraseOneFlashBlock>
a3f80fdc:	e3500000 	cmp	r0, #0	; 0x0
a3f80fe0:	0a000006 	beq	a3f81000 <EraseFlashBlocks+0x68>
a3f80fe4:	e2844701 	add	r4, r4, #262144	; 0x40000
a3f80fe8:	e1540005 	cmp	r4, r5
a3f80fec:	3afffff4 	bcc	a3f80fc4 <EraseFlashBlocks+0x2c>
a3f80ff0:	e59f3014 	ldr	r3, [pc, #20]	; a3f8100c <EraseFlashBlocks+0x74>
a3f80ff4:	e79a0003 	ldr	r0, [sl, r3]
a3f80ff8:	eb00027c 	bl	a3f819f0 <printf>
a3f80ffc:	e3a00001 	mov	r0, #1	; 0x1
a3f81000:	e91bac70 	ldmdb	fp, {r4, r5, r6, sl, fp, sp, pc}
a3f81004:	fffff040 	swinv	0x00fff040
a3f81008:	00004b68 	andeq	r4, r0, r8, ror #22
a3f8100c:	00004b6c 	andeq	r4, r0, ip, ror #22

a3f81010 <DoEraseFlashBlocks>:
a3f81010:	e1a0c00d 	mov	ip, sp
a3f81014:	e92ddc70 	stmdb	sp!, {r4, r5, r6, sl, fp, ip, lr, pc}
a3f81018:	e24cb004 	sub	fp, ip, #4	; 0x4
a3f8101c:	e3a05000 	mov	r5, #0	; 0x0
a3f81020:	e3510002 	cmp	r1, #2	; 0x2
a3f81024:	e1a06000 	mov	r6, r0
a3f81028:	e59fa158 	ldr	sl, [pc, #344]	; a3f81188 <DoEraseFlashBlocks+0x178>
a3f8102c:	e1a04002 	mov	r4, r2
a3f81030:	e08fa00a 	add	sl, pc, sl
a3f81034:	e24dd004 	sub	sp, sp, #4	; 0x4
a3f81038:	0a000002 	beq	a3f81048 <DoEraseFlashBlocks+0x38>
a3f8103c:	e3510003 	cmp	r1, #3	; 0x3
a3f81040:	0a00003d 	beq	a3f8113c <DoEraseFlashBlocks+0x12c>
a3f81044:	ea00001e 	b	a3f810c4 <DoEraseFlashBlocks+0xb4>
a3f81048:	e59f313c 	ldr	r3, [pc, #316]	; a3f8118c <DoEraseFlashBlocks+0x17c>
a3f8104c:	e5940004 	ldr	r0, [r4, #4]
a3f81050:	e79a1003 	ldr	r1, [sl, r3]
a3f81054:	eb000159 	bl	a3f815c0 <StrCmp>
a3f81058:	e3500000 	cmp	r0, #0	; 0x0
a3f8105c:	1a000002 	bne	a3f8106c <DoEraseFlashBlocks+0x5c>
a3f81060:	e3a05703 	mov	r5, #786432	; 0xc0000
a3f81064:	e3a03602 	mov	r3, #2097152	; 0x200000
a3f81068:	ea00001b 	b	a3f810dc <DoEraseFlashBlocks+0xcc>
a3f8106c:	e59f311c 	ldr	r3, [pc, #284]	; a3f81190 <DoEraseFlashBlocks+0x180>
a3f81070:	e5940004 	ldr	r0, [r4, #4]
a3f81074:	e79a1003 	ldr	r1, [sl, r3]
a3f81078:	eb000150 	bl	a3f815c0 <StrCmp>
a3f8107c:	e3500000 	cmp	r0, #0	; 0x0
a3f81080:	1a000002 	bne	a3f81090 <DoEraseFlashBlocks+0x80>
a3f81084:	e3a0570b 	mov	r5, #2883584	; 0x2c0000
a3f81088:	e3a0361d 	mov	r3, #30408704	; 0x1d00000
a3f8108c:	ea000012 	b	a3f810dc <DoEraseFlashBlocks+0xcc>
a3f81090:	e59f30fc 	ldr	r3, [pc, #252]	; a3f81194 <DoEraseFlashBlocks+0x184>
a3f81094:	e5940004 	ldr	r0, [r4, #4]
a3f81098:	e79a1003 	ldr	r1, [sl, r3]
a3f8109c:	eb000147 	bl	a3f815c0 <StrCmp>
a3f810a0:	e3500000 	cmp	r0, #0	; 0x0
a3f810a4:	e3a03701 	mov	r3, #262144	; 0x40000
a3f810a8:	0a00000b 	beq	a3f810dc <DoEraseFlashBlocks+0xcc>
a3f810ac:	e59f30e4 	ldr	r3, [pc, #228]	; a3f81198 <DoEraseFlashBlocks+0x188>
a3f810b0:	e5940004 	ldr	r0, [r4, #4]
a3f810b4:	e79a1003 	ldr	r1, [sl, r3]
a3f810b8:	eb000140 	bl	a3f815c0 <StrCmp>
a3f810bc:	e3500000 	cmp	r0, #0	; 0x0
a3f810c0:	0a000003 	beq	a3f810d4 <DoEraseFlashBlocks+0xc4>
a3f810c4:	e5960008 	ldr	r0, [r6, #8]
a3f810c8:	eb000248 	bl	a3f819f0 <printf>
a3f810cc:	e3a00000 	mov	r0, #0	; 0x0
a3f810d0:	e91bac70 	ldmdb	fp, {r4, r5, r6, sl, fp, sp, pc}
a3f810d4:	e3a0570b 	mov	r5, #2883584	; 0x2c0000
a3f810d8:	e3a03832 	mov	r3, #3276800	; 0x320000
a3f810dc:	e50b3020 	str	r3, [fp, -#32]
a3f810e0:	e3c534ff 	bic	r3, r5, #-16777216	; 0xff000000
a3f810e4:	e3c3373f 	bic	r3, r3, #16515072	; 0xfc0000
a3f810e8:	e3530000 	cmp	r3, #0	; 0x0
a3f810ec:	0a000002 	beq	a3f810fc <DoEraseFlashBlocks+0xec>
a3f810f0:	e59f30a4 	ldr	r3, [pc, #164]	; a3f8119c <DoEraseFlashBlocks+0x18c>
a3f810f4:	e79a0003 	ldr	r0, [sl, r3]
a3f810f8:	eafffff2 	b	a3f810c8 <DoEraseFlashBlocks+0xb8>
a3f810fc:	e1a01005 	mov	r1, r5
a3f81100:	e51b2020 	ldr	r2, [fp, -#32]
a3f81104:	e59f3094 	ldr	r3, [pc, #148]	; a3f811a0 <DoEraseFlashBlocks+0x190>
a3f81108:	e0852002 	add	r2, r5, r2
a3f8110c:	e79a0003 	ldr	r0, [sl, r3]
a3f81110:	e2422001 	sub	r2, r2, #1	; 0x1
a3f81114:	eb000235 	bl	a3f819f0 <printf>
a3f81118:	e51b1020 	ldr	r1, [fp, -#32]
a3f8111c:	e1a00005 	mov	r0, r5
a3f81120:	ebffff9c 	bl	a3f80f98 <EraseFlashBlocks>
a3f81124:	e3500000 	cmp	r0, #0	; 0x0
a3f81128:	0a000015 	beq	a3f81184 <DoEraseFlashBlocks+0x174>
a3f8112c:	e59f3070 	ldr	r3, [pc, #112]	; a3f811a4 <DoEraseFlashBlocks+0x194>
a3f81130:	e79a0003 	ldr	r0, [sl, r3]
a3f81134:	eb00022d 	bl	a3f819f0 <printf>
a3f81138:	ea000010 	b	a3f81180 <DoEraseFlashBlocks+0x170>
a3f8113c:	e24b1020 	sub	r1, fp, #32	; 0x20
a3f81140:	e5940008 	ldr	r0, [r4, #8]
a3f81144:	e3a02020 	mov	r2, #32	; 0x20
a3f81148:	eb000132 	bl	a3f81618 <HexToInt>
a3f8114c:	e3500000 	cmp	r0, #0	; 0x0
a3f81150:	0affffdb 	beq	a3f810c4 <DoEraseFlashBlocks+0xb4>
a3f81154:	e51b4020 	ldr	r4, [fp, -#32]
a3f81158:	e1550004 	cmp	r5, r4
a3f8115c:	2a000007 	bcs	a3f81180 <DoEraseFlashBlocks+0x170>
a3f81160:	e1a00005 	mov	r0, r5
a3f81164:	eb00000f 	bl	a3f811a8 <EraseOneFlashBlock>
a3f81168:	e3500000 	cmp	r0, #0	; 0x0
a3f8116c:	1a000000 	bne	a3f81174 <DoEraseFlashBlocks+0x164>
a3f81170:	e91bac70 	ldmdb	fp, {r4, r5, r6, sl, fp, sp, pc}
a3f81174:	e2855701 	add	r5, r5, #262144	; 0x40000
a3f81178:	e1550004 	cmp	r5, r4
a3f8117c:	3afffff7 	bcc	a3f81160 <DoEraseFlashBlocks+0x150>
a3f81180:	e3a00001 	mov	r0, #1	; 0x1
a3f81184:	e91bac70 	ldmdb	fp, {r4, r5, r6, sl, fp, sp, pc}
a3f81188:	ffffefc8 	swinv	0x00ffefc8
a3f8118c:	00004b2c 	andeq	r4, r0, ip, lsr #22
a3f81190:	00004b34 	andeq	r4, r0, r4, lsr fp
a3f81194:	00004b3c 	andeq	r4, r0, ip, lsr fp
a3f81198:	00004b44 	andeq	r4, r0, r4, asr #22
a3f8119c:	00004b70 	andeq	r4, r0, r0, ror fp
a3f811a0:	00004b50 	andeq	r4, r0, r0, asr fp
a3f811a4:	00004b54 	andeq	r4, r0, r4, asr fp

a3f811a8 <EraseOneFlashBlock>:
a3f811a8:	e1a0c00d 	mov	ip, sp
a3f811ac:	e92dd800 	stmdb	sp!, {fp, ip, lr, pc}
a3f811b0:	e24cb004 	sub	fp, ip, #4	; 0x4
a3f811b4:	e1a01000 	mov	r1, r0
a3f811b8:	e3c134ff 	bic	r3, r1, #-16777216	; 0xff000000
a3f811bc:	e3c3373f 	bic	r3, r3, #16515072	; 0xfc0000
a3f811c0:	e3530000 	cmp	r3, #0	; 0x0
a3f811c4:	1a000008 	bne	a3f811ec <EraseOneFlashBlock+0x44>
a3f811c8:	e59f3024 	ldr	r3, [pc, #36]	; a3f811f4 <EraseOneFlashBlock+0x4c>
a3f811cc:	e59f2024 	ldr	r2, [pc, #36]	; a3f811f8 <EraseOneFlashBlock+0x50>
a3f811d0:	e5813000 	str	r3, [r1]
a3f811d4:	e5812000 	str	r2, [r1]
a3f811d8:	e3a01001 	mov	r1, #1	; 0x1
a3f811dc:	eb000094 	bl	a3f81434 <FullStatusCheck>
a3f811e0:	e2500000 	subs	r0, r0, #0	; 0x0
a3f811e4:	13a00001 	movne	r0, #1	; 0x1
a3f811e8:	e91ba800 	ldmdb	fp, {fp, sp, pc}
a3f811ec:	e3a00000 	mov	r0, #0	; 0x0
a3f811f0:	e91ba800 	ldmdb	fp, {fp, sp, pc}
a3f811f4:	00200020 	eoreq	r0, r0, r0, lsr #32
a3f811f8:	00d000d0 	ldreqsb	r0, [r0]

a3f811fc <DoFlashLock>:
a3f811fc:	e1a0c00d 	mov	ip, sp
a3f81200:	e92ddc30 	stmdb	sp!, {r4, r5, sl, fp, ip, lr, pc}
a3f81204:	e24cb004 	sub	fp, ip, #4	; 0x4
a3f81208:	e3510001 	cmp	r1, #1	; 0x1
a3f8120c:	e1a05000 	mov	r5, r0
a3f81210:	e59fa124 	ldr	sl, [pc, #292]	; a3f8133c <DoFlashLock+0x140>
a3f81214:	e1a04002 	mov	r4, r2
a3f81218:	e08fa00a 	add	sl, pc, sl
a3f8121c:	e24dd004 	sub	sp, sp, #4	; 0x4
a3f81220:	ca000003 	bgt	a3f81234 <DoFlashLock+0x38>
a3f81224:	e5950008 	ldr	r0, [r5, #8]
a3f81228:	eb0001f0 	bl	a3f819f0 <printf>
a3f8122c:	e3a00000 	mov	r0, #0	; 0x0
a3f81230:	e91bac30 	ldmdb	fp, {r4, r5, sl, fp, sp, pc}
a3f81234:	e3510002 	cmp	r1, #2	; 0x2
a3f81238:	1afffff9 	bne	a3f81224 <DoFlashLock+0x28>
a3f8123c:	e59f30fc 	ldr	r3, [pc, #252]	; a3f81340 <DoFlashLock+0x144>
a3f81240:	e5940004 	ldr	r0, [r4, #4]
a3f81244:	e79a1003 	ldr	r1, [sl, r3]
a3f81248:	eb0000dc 	bl	a3f815c0 <StrCmp>
a3f8124c:	e3500000 	cmp	r0, #0	; 0x0
a3f81250:	1a000002 	bne	a3f81260 <DoFlashLock+0x64>
a3f81254:	e3a02701 	mov	r2, #262144	; 0x40000
a3f81258:	e50b001c 	str	r0, [fp, -#28]
a3f8125c:	ea000023 	b	a3f812f0 <DoFlashLock+0xf4>
a3f81260:	e59f30dc 	ldr	r3, [pc, #220]	; a3f81344 <DoFlashLock+0x148>
a3f81264:	e5940004 	ldr	r0, [r4, #4]
a3f81268:	e79a1003 	ldr	r1, [sl, r3]
a3f8126c:	eb0000d3 	bl	a3f815c0 <StrCmp>
a3f81270:	e3500000 	cmp	r0, #0	; 0x0
a3f81274:	1a000003 	bne	a3f81288 <DoFlashLock+0x8c>
a3f81278:	e3a02602 	mov	r2, #2097152	; 0x200000
a3f8127c:	e3a03703 	mov	r3, #786432	; 0xc0000
a3f81280:	e50b301c 	str	r3, [fp, -#28]
a3f81284:	ea000019 	b	a3f812f0 <DoFlashLock+0xf4>
a3f81288:	e59f30b8 	ldr	r3, [pc, #184]	; a3f81348 <DoFlashLock+0x14c>
a3f8128c:	e5940004 	ldr	r0, [r4, #4]
a3f81290:	e79a1003 	ldr	r1, [sl, r3]
a3f81294:	eb0000c9 	bl	a3f815c0 <StrCmp>
a3f81298:	e3500000 	cmp	r0, #0	; 0x0
a3f8129c:	03a0261d 	moveq	r2, #30408704	; 0x1d00000
a3f812a0:	0a000006 	beq	a3f812c0 <DoFlashLock+0xc4>
a3f812a4:	e59f30a0 	ldr	r3, [pc, #160]	; a3f8134c <DoFlashLock+0x150>
a3f812a8:	e5940004 	ldr	r0, [r4, #4]
a3f812ac:	e79a1003 	ldr	r1, [sl, r3]
a3f812b0:	eb0000c2 	bl	a3f815c0 <StrCmp>
a3f812b4:	e3500000 	cmp	r0, #0	; 0x0
a3f812b8:	1a000003 	bne	a3f812cc <DoFlashLock+0xd0>
a3f812bc:	e3a02832 	mov	r2, #3276800	; 0x320000
a3f812c0:	e3a0370b 	mov	r3, #2883584	; 0x2c0000
a3f812c4:	e50b301c 	str	r3, [fp, -#28]
a3f812c8:	ea000008 	b	a3f812f0 <DoFlashLock+0xf4>
a3f812cc:	e24b101c 	sub	r1, fp, #28	; 0x1c
a3f812d0:	e5940004 	ldr	r0, [r4, #4]
a3f812d4:	e3a02020 	mov	r2, #32	; 0x20
a3f812d8:	eb0000ce 	bl	a3f81618 <HexToInt>
a3f812dc:	e2504000 	subs	r4, r0, #0	; 0x0
a3f812e0:	0affffcf 	beq	a3f81224 <DoFlashLock+0x28>
a3f812e4:	e3a02701 	mov	r2, #262144	; 0x40000
a3f812e8:	ea000000 	b	a3f812f0 <DoFlashLock+0xf4>
a3f812ec:	e91bac30 	ldmdb	fp, {r4, r5, sl, fp, sp, pc}
a3f812f0:	e3120802 	tst	r2, #131072	; 0x20000
a3f812f4:	e3a04000 	mov	r4, #0	; 0x0
a3f812f8:	03a03000 	moveq	r3, #0	; 0x0
a3f812fc:	13a03001 	movne	r3, #1	; 0x1
a3f81300:	e0835922 	add	r5, r3, r2, lsr #18
a3f81304:	e1540005 	cmp	r4, r5
a3f81308:	aa000009 	bge	a3f81334 <DoFlashLock+0x138>
a3f8130c:	e51b001c 	ldr	r0, [fp, -#28]
a3f81310:	eb00001b 	bl	a3f81384 <FlashLock>
a3f81314:	e3500000 	cmp	r0, #0	; 0x0
a3f81318:	0afffff3 	beq	a3f812ec <DoFlashLock+0xf0>
a3f8131c:	e2844001 	add	r4, r4, #1	; 0x1
a3f81320:	e51b301c 	ldr	r3, [fp, -#28]
a3f81324:	e1540005 	cmp	r4, r5
a3f81328:	e2833701 	add	r3, r3, #262144	; 0x40000
a3f8132c:	e50b301c 	str	r3, [fp, -#28]
a3f81330:	bafffff5 	blt	a3f8130c <DoFlashLock+0x110>
a3f81334:	e3a00001 	mov	r0, #1	; 0x1
a3f81338:	e91bac30 	ldmdb	fp, {r4, r5, sl, fp, sp, pc}
a3f8133c:	ffffede0 	swinv	0x00ffede0
a3f81340:	00004b3c 	andeq	r4, r0, ip, lsr fp
a3f81344:	00004b2c 	andeq	r4, r0, ip, lsr #22
a3f81348:	00004b34 	andeq	r4, r0, r4, lsr fp
a3f8134c:	00004b44 	andeq	r4, r0, r4, asr #22

a3f81350 <DoFlashUnlock>:
a3f81350:	e1a0c00d 	mov	ip, sp
a3f81354:	e92dd800 	stmdb	sp!, {fp, ip, lr, pc}
a3f81358:	e24cb004 	sub	fp, ip, #4	; 0x4
a3f8135c:	e3510001 	cmp	r1, #1	; 0x1
a3f81360:	1a000003 	bne	a3f81374 <DoFlashUnlock+0x24>
a3f81364:	eb000022 	bl	a3f813f4 <FlashUnlock>
a3f81368:	e2500000 	subs	r0, r0, #0	; 0x0
a3f8136c:	13a00001 	movne	r0, #1	; 0x1
a3f81370:	e91ba800 	ldmdb	fp, {fp, sp, pc}
a3f81374:	e5900008 	ldr	r0, [r0, #8]
a3f81378:	eb00019c 	bl	a3f819f0 <printf>
a3f8137c:	e3a00000 	mov	r0, #0	; 0x0
a3f81380:	e91ba800 	ldmdb	fp, {fp, sp, pc}

a3f81384 <FlashLock>:
a3f81384:	e1a0c00d 	mov	ip, sp
a3f81388:	e92ddc00 	stmdb	sp!, {sl, fp, ip, lr, pc}
a3f8138c:	e24cb004 	sub	fp, ip, #4	; 0x4
a3f81390:	e1a01000 	mov	r1, r0
a3f81394:	e3c134ff 	bic	r3, r1, #-16777216	; 0xff000000
a3f81398:	e3c3373f 	bic	r3, r3, #16515072	; 0xfc0000
a3f8139c:	e59fa040 	ldr	sl, [pc, #64]	; a3f813e4 <FlashLock+0x60>
a3f813a0:	e3530000 	cmp	r3, #0	; 0x0
a3f813a4:	e08fa00a 	add	sl, pc, sl
a3f813a8:	1a000008 	bne	a3f813d0 <FlashLock+0x4c>
a3f813ac:	e59f3034 	ldr	r3, [pc, #52]	; a3f813e8 <FlashLock+0x64>
a3f813b0:	e59f2034 	ldr	r2, [pc, #52]	; a3f813ec <FlashLock+0x68>
a3f813b4:	e5813000 	str	r3, [r1]
a3f813b8:	e5812000 	str	r2, [r1]
a3f813bc:	e3a01002 	mov	r1, #2	; 0x2
a3f813c0:	eb00001b 	bl	a3f81434 <FullStatusCheck>
a3f813c4:	e2500000 	subs	r0, r0, #0	; 0x0
a3f813c8:	13a00001 	movne	r0, #1	; 0x1
a3f813cc:	e91bac00 	ldmdb	fp, {sl, fp, sp, pc}
a3f813d0:	e59f3018 	ldr	r3, [pc, #24]	; a3f813f0 <FlashLock+0x6c>
a3f813d4:	e79a0003 	ldr	r0, [sl, r3]
a3f813d8:	eb000184 	bl	a3f819f0 <printf>
a3f813dc:	e3a00000 	mov	r0, #0	; 0x0
a3f813e0:	e91bac00 	ldmdb	fp, {sl, fp, sp, pc}
a3f813e4:	ffffec54 	swinv	0x00ffec54
a3f813e8:	00600060 	rsbeq	r0, r0, r0, rrx
a3f813ec:	00010001 	andeq	r0, r1, r1
a3f813f0:	00004b70 	andeq	r4, r0, r0, ror fp

a3f813f4 <FlashUnlock>:
a3f813f4:	e1a0c00d 	mov	ip, sp
a3f813f8:	e92dd800 	stmdb	sp!, {fp, ip, lr, pc}
a3f813fc:	e24cb004 	sub	fp, ip, #4	; 0x4
a3f81400:	e3a03000 	mov	r3, #0	; 0x0
a3f81404:	e59f2020 	ldr	r2, [pc, #32]	; a3f8142c <FlashUnlock+0x38>
a3f81408:	e59f1020 	ldr	r1, [pc, #32]	; a3f81430 <FlashUnlock+0x3c>
a3f8140c:	e1a00003 	mov	r0, r3
a3f81410:	e5832000 	str	r2, [r3]
a3f81414:	e5831000 	str	r1, [r3]
a3f81418:	e3a01003 	mov	r1, #3	; 0x3
a3f8141c:	eb000004 	bl	a3f81434 <FullStatusCheck>
a3f81420:	e2500000 	subs	r0, r0, #0	; 0x0
a3f81424:	13a00001 	movne	r0, #1	; 0x1
a3f81428:	e91ba800 	ldmdb	fp, {fp, sp, pc}
a3f8142c:	00600060 	rsbeq	r0, r0, r0, rrx
a3f81430:	00d000d0 	ldreqsb	r0, [r0]

a3f81434 <FullStatusCheck>:
a3f81434:	e92d4400 	stmdb	sp!, {sl, lr}
a3f81438:	e59fa028 	ldr	sl, [pc, #40]	; a3f81468 <FullStatusCheck+0x34>
a3f8143c:	e59f1028 	ldr	r1, [pc, #40]	; a3f8146c <FullStatusCheck+0x38>
a3f81440:	e59f2028 	ldr	r2, [pc, #40]	; a3f81470 <FullStatusCheck+0x3c>
a3f81444:	e08fa00a 	add	sl, pc, sl
a3f81448:	e5801000 	str	r1, [r0]
a3f8144c:	e5903000 	ldr	r3, [r0]
a3f81450:	e1d23003 	bics	r3, r2, r3
a3f81454:	1afffffb 	bne	a3f81448 <FullStatusCheck+0x14>
a3f81458:	e59f3014 	ldr	r3, [pc, #20]	; a3f81474 <FullStatusCheck+0x40>
a3f8145c:	e5803000 	str	r3, [r0]
a3f81460:	e3a00001 	mov	r0, #1	; 0x1
a3f81464:	e8bd8400 	ldmia	sp!, {sl, pc}
a3f81468:	ffffebb4 	swinv	0x00ffebb4
a3f8146c:	00700070 	rsbeqs	r0, r0, r0, ror r0
a3f81470:	00800080 	addeq	r0, r0, r0, lsl #1
a3f81474:	00ff00ff 	ldreqsh	r0, [pc, #15]	; a3f8148b <MemCpy32+0x13>

a3f81478 <MemCpy32>:
a3f81478:	e2422001 	sub	r2, r2, #1	; 0x1
a3f8147c:	e3720001 	cmn	r2, #1	; 0x1
a3f81480:	01a0f00e 	moveq	pc, lr
a3f81484:	e2422001 	sub	r2, r2, #1	; 0x1
a3f81488:	e4913004 	ldr	r3, [r1], #4
a3f8148c:	e3720001 	cmn	r2, #1	; 0x1
a3f81490:	e4803004 	str	r3, [r0], #4
a3f81494:	1afffffa 	bne	a3f81484 <MemCpy32+0xc>
a3f81498:	e1a0f00e 	mov	pc, lr

a3f8149c <MemCpy>:
a3f8149c:	e0802002 	add	r2, r0, r2
a3f814a0:	e1500002 	cmp	r0, r2
a3f814a4:	21a0f00e 	movcs	pc, lr
a3f814a8:	e4d13001 	ldrb	r3, [r1], #1
a3f814ac:	e4c03001 	strb	r3, [r0], #1
a3f814b0:	e1500002 	cmp	r0, r2
a3f814b4:	3afffffb 	bcc	a3f814a8 <MemCpy+0xc>
a3f814b8:	e1a0f00e 	mov	pc, lr

a3f814bc <MemSet>:
a3f814bc:	e0803002 	add	r3, r0, r2
a3f814c0:	e1500003 	cmp	r0, r3
a3f814c4:	e20110ff 	and	r1, r1, #255	; 0xff
a3f814c8:	21a0f00e 	movcs	pc, lr
a3f814cc:	e4c01001 	strb	r1, [r0], #1
a3f814d0:	e1500003 	cmp	r0, r3
a3f814d4:	3afffffc 	bcc	a3f814cc <MemSet+0x10>
a3f814d8:	e1a0f00e 	mov	pc, lr

a3f814dc <MemCmp>:
a3f814dc:	e080c002 	add	ip, r0, r2
a3f814e0:	e150000c 	cmp	r0, ip
a3f814e4:	2a000009 	bcs	a3f81510 <MemCmp+0x34>
a3f814e8:	e4d02001 	ldrb	r2, [r0], #1
a3f814ec:	e4d13001 	ldrb	r3, [r1], #1
a3f814f0:	e1520003 	cmp	r2, r3
a3f814f4:	0afffff9 	beq	a3f814e0 <MemCmp+0x4>
a3f814f8:	e2400001 	sub	r0, r0, #1	; 0x1
a3f814fc:	e2411001 	sub	r1, r1, #1	; 0x1
a3f81500:	e5d03000 	ldrb	r3, [r0]
a3f81504:	e5d10000 	ldrb	r0, [r1]
a3f81508:	e0600003 	rsb	r0, r0, r3
a3f8150c:	e1a0f00e 	mov	pc, lr
a3f81510:	e3a00000 	mov	r0, #0	; 0x0
a3f81514:	e1a0f00e 	mov	pc, lr

a3f81518 <StrCpy>:
a3f81518:	e5d13000 	ldrb	r3, [r1]
a3f8151c:	e3530000 	cmp	r3, #0	; 0x0
a3f81520:	0a000004 	beq	a3f81538 <StrCpy+0x20>
a3f81524:	e5d13000 	ldrb	r3, [r1]
a3f81528:	e4c03001 	strb	r3, [r0], #1
a3f8152c:	e5f12001 	ldrb	r2, [r1, #1]!
a3f81530:	e3520000 	cmp	r2, #0	; 0x0
a3f81534:	1afffffa 	bne	a3f81524 <StrCpy+0xc>
a3f81538:	e3a03000 	mov	r3, #0	; 0x0
a3f8153c:	e5c03000 	strb	r3, [r0]
a3f81540:	e1a0f00e 	mov	pc, lr

a3f81544 <StrLen>:
a3f81544:	e2502000 	subs	r2, r0, #0	; 0x0
a3f81548:	03e00000 	mvneq	r0, #0	; 0x0
a3f8154c:	01a0f00e 	moveq	pc, lr
a3f81550:	e5d03000 	ldrb	r3, [r0]
a3f81554:	e3530000 	cmp	r3, #0	; 0x0
a3f81558:	0a000002 	beq	a3f81568 <StrLen+0x24>
a3f8155c:	e5f23001 	ldrb	r3, [r2, #1]!
a3f81560:	e3530000 	cmp	r3, #0	; 0x0
a3f81564:	1afffffc 	bne	a3f8155c <StrLen+0x18>
a3f81568:	e0600002 	rsb	r0, r0, r2
a3f8156c:	e1a0f00e 	mov	pc, lr

a3f81570 <StrNCmp>:
a3f81570:	e3a0c000 	mov	ip, #0	; 0x0
a3f81574:	e15c0002 	cmp	ip, r2
a3f81578:	e92d4000 	stmdb	sp!, {lr}
a3f8157c:	e1a0e000 	mov	lr, r0
a3f81580:	aa00000c 	bge	a3f815b8 <StrNCmp+0x48>
a3f81584:	e7de000c 	ldrb	r0, [lr, ip]
a3f81588:	e7d1300c 	ldrb	r3, [r1, ip]
a3f8158c:	e1500003 	cmp	r0, r3
a3f81590:	0a000003 	beq	a3f815a4 <StrNCmp+0x34>
a3f81594:	e1a03000 	mov	r3, r0
a3f81598:	e7d1000c 	ldrb	r0, [r1, ip]
a3f8159c:	e0600003 	rsb	r0, r0, r3
a3f815a0:	e8bd8000 	ldmia	sp!, {pc}
a3f815a4:	e3500000 	cmp	r0, #0	; 0x0
a3f815a8:	08bd8000 	ldmeqia	sp!, {pc}
a3f815ac:	e28cc001 	add	ip, ip, #1	; 0x1
a3f815b0:	e15c0002 	cmp	ip, r2
a3f815b4:	bafffff2 	blt	a3f81584 <StrNCmp+0x14>
a3f815b8:	e3a00000 	mov	r0, #0	; 0x0
a3f815bc:	e8bd8000 	ldmia	sp!, {pc}

a3f815c0 <StrCmp>:
a3f815c0:	e1a0c000 	mov	ip, r0
a3f815c4:	e5dc2000 	ldrb	r2, [ip]
a3f815c8:	ea000003 	b	a3f815dc <StrCmp+0x1c>
a3f815cc:	e1520003 	cmp	r2, r3
a3f815d0:	1a00000c 	bne	a3f81608 <StrCmp+0x48>
a3f815d4:	e5fc2001 	ldrb	r2, [ip, #1]!
a3f815d8:	e2811001 	add	r1, r1, #1	; 0x1
a3f815dc:	e3520000 	cmp	r2, #0	; 0x0
a3f815e0:	0a000002 	beq	a3f815f0 <StrCmp+0x30>
a3f815e4:	e5d13000 	ldrb	r3, [r1]
a3f815e8:	e3530000 	cmp	r3, #0	; 0x0
a3f815ec:	1afffff6 	bne	a3f815cc <StrCmp+0xc>
a3f815f0:	e5dc3000 	ldrb	r3, [ip]
a3f815f4:	e3530000 	cmp	r3, #0	; 0x0
a3f815f8:	1a000002 	bne	a3f81608 <StrCmp+0x48>
a3f815fc:	e5d10000 	ldrb	r0, [r1]
a3f81600:	e3500000 	cmp	r0, #0	; 0x0
a3f81604:	01a0f00e 	moveq	pc, lr
a3f81608:	e5dc3000 	ldrb	r3, [ip]
a3f8160c:	e5d10000 	ldrb	r0, [r1]
a3f81610:	e0600003 	rsb	r0, r0, r3
a3f81614:	e1a0f00e 	mov	pc, lr

a3f81618 <HexToInt>:
a3f81618:	e1a0c00d 	mov	ip, sp
a3f8161c:	e92ddcf0 	stmdb	sp!, {r4, r5, r6, r7, sl, fp, ip, lr, pc}
a3f81620:	e24cb004 	sub	fp, ip, #4	; 0x4
a3f81624:	e1a04000 	mov	r4, r0
a3f81628:	e1a07001 	mov	r7, r1
a3f8162c:	e3570000 	cmp	r7, #0	; 0x0
a3f81630:	13a03000 	movne	r3, #0	; 0x0
a3f81634:	03a03001 	moveq	r3, #1	; 0x1
a3f81638:	e3540000 	cmp	r4, #0	; 0x0
a3f8163c:	11a05003 	movne	r5, r3
a3f81640:	03a05001 	moveq	r5, #1	; 0x1
a3f81644:	e3550000 	cmp	r5, #0	; 0x0
a3f81648:	e59fa0f4 	ldr	sl, [pc, #244]	; a3f81744 <HexToInt+0x12c>
a3f8164c:	e1a06002 	mov	r6, r2
a3f81650:	e08fa00a 	add	sl, pc, sl
a3f81654:	0a000001 	beq	a3f81660 <HexToInt+0x48>
a3f81658:	e3a00000 	mov	r0, #0	; 0x0
a3f8165c:	e91bacf0 	ldmdb	fp, {r4, r5, r6, r7, sl, fp, sp, pc}
a3f81660:	e59f30e0 	ldr	r3, [pc, #224]	; a3f81748 <HexToInt+0x130>
a3f81664:	e1a00004 	mov	r0, r4
a3f81668:	e79a1003 	ldr	r1, [sl, r3]
a3f8166c:	e3a02002 	mov	r2, #2	; 0x2
a3f81670:	ebffffbe 	bl	a3f81570 <StrNCmp>
a3f81674:	e2843002 	add	r3, r4, #2	; 0x2
a3f81678:	e3500000 	cmp	r0, #0	; 0x0
a3f8167c:	01a04003 	moveq	r4, r3
a3f81680:	e1a01005 	mov	r1, r5
a3f81684:	e1a00001 	mov	r0, r1
a3f81688:	e1a03126 	mov	r3, r6, lsr #2
a3f8168c:	e1510003 	cmp	r1, r3
a3f81690:	e1a0c003 	mov	ip, r3
a3f81694:	2a00001a 	bcs	a3f81704 <HexToInt+0xec>
a3f81698:	e5d43000 	ldrb	r3, [r4]
a3f8169c:	e3530000 	cmp	r3, #0	; 0x0
a3f816a0:	0a000026 	beq	a3f81740 <HexToInt+0x128>
a3f816a4:	e4d42001 	ldrb	r2, [r4], #1
a3f816a8:	e2423030 	sub	r3, r2, #48	; 0x30
a3f816ac:	e20330ff 	and	r3, r3, #255	; 0xff
a3f816b0:	e3530009 	cmp	r3, #9	; 0x9
a3f816b4:	91a02003 	movls	r2, r3
a3f816b8:	9a000008 	bls	a3f816e0 <HexToInt+0xc8>
a3f816bc:	e2423061 	sub	r3, r2, #97	; 0x61
a3f816c0:	e3530005 	cmp	r3, #5	; 0x5
a3f816c4:	928230a9 	addls	r3, r2, #169	; 0xa9
a3f816c8:	9a000003 	bls	a3f816dc <HexToInt+0xc4>
a3f816cc:	e2423041 	sub	r3, r2, #65	; 0x41
a3f816d0:	e3530005 	cmp	r3, #5	; 0x5
a3f816d4:	8affffdf 	bhi	a3f81658 <HexToInt+0x40>
a3f816d8:	e28230c9 	add	r3, r2, #201	; 0xc9
a3f816dc:	e20320ff 	and	r2, r3, #255	; 0xff
a3f816e0:	e1821201 	orr	r1, r2, r1, lsl #4
a3f816e4:	e2800001 	add	r0, r0, #1	; 0x1
a3f816e8:	e150000c 	cmp	r0, ip
a3f816ec:	2a000004 	bcs	a3f81704 <HexToInt+0xec>
a3f816f0:	e5d43000 	ldrb	r3, [r4]
a3f816f4:	e3530000 	cmp	r3, #0	; 0x0
a3f816f8:	1affffe9 	bne	a3f816a4 <HexToInt+0x8c>
a3f816fc:	e3500000 	cmp	r0, #0	; 0x0
a3f81700:	0a00000e 	beq	a3f81740 <HexToInt+0x128>
a3f81704:	e3560010 	cmp	r6, #16	; 0x10
a3f81708:	0a000008 	beq	a3f81730 <HexToInt+0x118>
a3f8170c:	8a000002 	bhi	a3f8171c <HexToInt+0x104>
a3f81710:	e3560008 	cmp	r6, #8	; 0x8
a3f81714:	0a000003 	beq	a3f81728 <HexToInt+0x110>
a3f81718:	eaffffce 	b	a3f81658 <HexToInt+0x40>
a3f8171c:	e3560020 	cmp	r6, #32	; 0x20
a3f81720:	0a000004 	beq	a3f81738 <HexToInt+0x120>
a3f81724:	eaffffcb 	b	a3f81658 <HexToInt+0x40>
a3f81728:	e5c71000 	strb	r1, [r7]
a3f8172c:	ea000002 	b	a3f8173c <HexToInt+0x124>
a3f81730:	e1c710b0 	strh	r1, [r7]
a3f81734:	ea000000 	b	a3f8173c <HexToInt+0x124>
a3f81738:	e5871000 	str	r1, [r7]
a3f8173c:	e3a00001 	mov	r0, #1	; 0x1
a3f81740:	e91bacf0 	ldmdb	fp, {r4, r5, r6, r7, sl, fp, sp, pc}
a3f81744:	ffffe9a8 	swinv	0x00ffe9a8
a3f81748:	00004b74 	andeq	r4, r0, r4, ror fp

a3f8174c <DecToLong>:
a3f8174c:	e3500000 	cmp	r0, #0	; 0x0
a3f81750:	0a000002 	beq	a3f81760 <DecToLong+0x14>
a3f81754:	e5d03000 	ldrb	r3, [r0]
a3f81758:	e3530000 	cmp	r3, #0	; 0x0
a3f8175c:	1a000001 	bne	a3f81768 <DecToLong+0x1c>
a3f81760:	e3a00000 	mov	r0, #0	; 0x0
a3f81764:	e1a0f00e 	mov	pc, lr
a3f81768:	e3a03000 	mov	r3, #0	; 0x0
a3f8176c:	e5813000 	str	r3, [r1]
a3f81770:	e5d03000 	ldrb	r3, [r0]
a3f81774:	e3530000 	cmp	r3, #0	; 0x0
a3f81778:	0a00000b 	beq	a3f817ac <DecToLong+0x60>
a3f8177c:	e2433030 	sub	r3, r3, #48	; 0x30
a3f81780:	e3530009 	cmp	r3, #9	; 0x9
a3f81784:	8afffff5 	bhi	a3f81760 <DecToLong+0x14>
a3f81788:	e5d02000 	ldrb	r2, [r0]
a3f8178c:	e5913000 	ldr	r3, [r1]
a3f81790:	e2422030 	sub	r2, r2, #48	; 0x30
a3f81794:	e0833103 	add	r3, r3, r3, lsl #2
a3f81798:	e0822083 	add	r2, r2, r3, lsl #1
a3f8179c:	e5812000 	str	r2, [r1]
a3f817a0:	e5f03001 	ldrb	r3, [r0, #1]!
a3f817a4:	e3530000 	cmp	r3, #0	; 0x0
a3f817a8:	1afffff3 	bne	a3f8177c <DecToLong+0x30>
a3f817ac:	e3a00001 	mov	r0, #1	; 0x1
a3f817b0:	e1a0f00e 	mov	pc, lr

a3f817b4 <HexDump>:
a3f817b4:	e1a0c00d 	mov	ip, sp
a3f817b8:	e92ddff0 	stmdb	sp!, {r4, r5, r6, r7, r8, r9, sl, fp, ip, lr, pc}
a3f817bc:	e24cb004 	sub	fp, ip, #4	; 0x4
a3f817c0:	e3510000 	cmp	r1, #0	; 0x0
a3f817c4:	b281300f 	addlt	r3, r1, #15	; 0xf
a3f817c8:	a1a03001 	movge	r3, r1
a3f817cc:	e3c3300f 	bic	r3, r3, #15	; 0xf
a3f817d0:	e0638001 	rsb	r8, r3, r1
a3f817d4:	e59fa1f0 	ldr	sl, [pc, #496]	; a3f819cc <HexDump+0x218>
a3f817d8:	e59f41f0 	ldr	r4, [pc, #496]	; a3f819d0 <HexDump+0x21c>
a3f817dc:	e08fa00a 	add	sl, pc, sl
a3f817e0:	e24dd018 	sub	sp, sp, #24	; 0x18
a3f817e4:	e50b002c 	str	r0, [fp, -#44]
a3f817e8:	e1a05000 	mov	r5, r0
a3f817ec:	e79a0004 	ldr	r0, [sl, r4]
a3f817f0:	e0852001 	add	r2, r5, r1
a3f817f4:	e50b2030 	str	r2, [fp, -#48]
a3f817f8:	eb00007c 	bl	a3f819f0 <printf>
a3f817fc:	e59f31d0 	ldr	r3, [pc, #464]	; a3f819d4 <HexDump+0x220>
a3f81800:	e79a0003 	ldr	r0, [sl, r3]
a3f81804:	eb000079 	bl	a3f819f0 <printf>
a3f81808:	e51b2030 	ldr	r2, [fp, -#48]
a3f8180c:	e2853010 	add	r3, r5, #16	; 0x10
a3f81810:	e50b4038 	str	r4, [fp, -#56]
a3f81814:	e1530002 	cmp	r3, r2
a3f81818:	8a00002e 	bhi	a3f818d8 <HexDump+0x124>
a3f8181c:	e59f31b4 	ldr	r3, [pc, #436]	; a3f819d8 <HexDump+0x224>
a3f81820:	e59f21b4 	ldr	r2, [pc, #436]	; a3f819dc <HexDump+0x228>
a3f81824:	e50b303c 	str	r3, [fp, -#60]
a3f81828:	e59f31b0 	ldr	r3, [pc, #432]	; a3f819e0 <HexDump+0x22c>
a3f8182c:	e50b2040 	str	r2, [fp, -#64]
a3f81830:	e50b3034 	str	r3, [fp, -#52]
a3f81834:	e3a04000 	mov	r4, #0	; 0x0
a3f81838:	e2859010 	add	r9, r5, #16	; 0x10
a3f8183c:	e51b3034 	ldr	r3, [fp, -#52]
a3f81840:	e51b202c 	ldr	r2, [fp, -#44]
a3f81844:	e79a0003 	ldr	r0, [sl, r3]
a3f81848:	e0621005 	rsb	r1, r2, r5
a3f8184c:	eb000067 	bl	a3f819f0 <printf>
a3f81850:	e51b203c 	ldr	r2, [fp, -#60]
a3f81854:	e7d51004 	ldrb	r1, [r5, r4]
a3f81858:	e79a0002 	ldr	r0, [sl, r2]
a3f8185c:	e2844001 	add	r4, r4, #1	; 0x1
a3f81860:	eb000062 	bl	a3f819f0 <printf>
a3f81864:	e354000f 	cmp	r4, #15	; 0xf
a3f81868:	dafffff8 	ble	a3f81850 <HexDump+0x9c>
a3f8186c:	e3a04000 	mov	r4, #0	; 0x0
a3f81870:	e51b3040 	ldr	r3, [fp, -#64]
a3f81874:	e59f7168 	ldr	r7, [pc, #360]	; a3f819e4 <HexDump+0x230>
a3f81878:	e79a0003 	ldr	r0, [sl, r3]
a3f8187c:	e59f6164 	ldr	r6, [pc, #356]	; a3f819e8 <HexDump+0x234>
a3f81880:	eb00005a 	bl	a3f819f0 <printf>
a3f81884:	e7d53004 	ldrb	r3, [r5, r4]
a3f81888:	e2433020 	sub	r3, r3, #32	; 0x20
a3f8188c:	e353005d 	cmp	r3, #93	; 0x5d
a3f81890:	8a000003 	bhi	a3f818a4 <HexDump+0xf0>
a3f81894:	e79a0007 	ldr	r0, [sl, r7]
a3f81898:	e7d51004 	ldrb	r1, [r5, r4]
a3f8189c:	eb000053 	bl	a3f819f0 <printf>
a3f818a0:	ea000001 	b	a3f818ac <HexDump+0xf8>
a3f818a4:	e79a0006 	ldr	r0, [sl, r6]
a3f818a8:	eb000050 	bl	a3f819f0 <printf>
a3f818ac:	e2844001 	add	r4, r4, #1	; 0x1
a3f818b0:	e354000f 	cmp	r4, #15	; 0xf
a3f818b4:	dafffff2 	ble	a3f81884 <HexDump+0xd0>
a3f818b8:	e51b2038 	ldr	r2, [fp, -#56]
a3f818bc:	e79a0002 	ldr	r0, [sl, r2]
a3f818c0:	e1a05009 	mov	r5, r9
a3f818c4:	eb000049 	bl	a3f819f0 <printf>
a3f818c8:	e51b2030 	ldr	r2, [fp, -#48]
a3f818cc:	e2853010 	add	r3, r5, #16	; 0x10
a3f818d0:	e1530002 	cmp	r3, r2
a3f818d4:	9affffd6 	bls	a3f81834 <HexDump+0x80>
a3f818d8:	e3580000 	cmp	r8, #0	; 0x0
a3f818dc:	0a000039 	beq	a3f819c8 <HexDump+0x214>
a3f818e0:	e51b302c 	ldr	r3, [fp, -#44]
a3f818e4:	e0631005 	rsb	r1, r3, r5
a3f818e8:	e59f30f0 	ldr	r3, [pc, #240]	; a3f819e0 <HexDump+0x22c>
a3f818ec:	e59f20e8 	ldr	r2, [pc, #232]	; a3f819dc <HexDump+0x228>
a3f818f0:	e79a0003 	ldr	r0, [sl, r3]
a3f818f4:	e3a04000 	mov	r4, #0	; 0x0
a3f818f8:	e50b2040 	str	r2, [fp, -#64]
a3f818fc:	eb00003b 	bl	a3f819f0 <printf>
a3f81900:	e1540008 	cmp	r4, r8
a3f81904:	e2687010 	rsb	r7, r8, #16	; 0x10
a3f81908:	aa000006 	bge	a3f81928 <HexDump+0x174>
a3f8190c:	e59f60c4 	ldr	r6, [pc, #196]	; a3f819d8 <HexDump+0x224>
a3f81910:	e79a0006 	ldr	r0, [sl, r6]
a3f81914:	e7d51004 	ldrb	r1, [r5, r4]
a3f81918:	e2844001 	add	r4, r4, #1	; 0x1
a3f8191c:	eb000033 	bl	a3f819f0 <printf>
a3f81920:	e1540008 	cmp	r4, r8
a3f81924:	bafffff9 	blt	a3f81910 <HexDump+0x15c>
a3f81928:	e3570000 	cmp	r7, #0	; 0x0
a3f8192c:	da000005 	ble	a3f81948 <HexDump+0x194>
a3f81930:	e1a04007 	mov	r4, r7
a3f81934:	e59f60b0 	ldr	r6, [pc, #176]	; a3f819ec <HexDump+0x238>
a3f81938:	e79a0006 	ldr	r0, [sl, r6]
a3f8193c:	eb00002b 	bl	a3f819f0 <printf>
a3f81940:	e2544001 	subs	r4, r4, #1	; 0x1
a3f81944:	1afffffb 	bne	a3f81938 <HexDump+0x184>
a3f81948:	e51b3040 	ldr	r3, [fp, -#64]
a3f8194c:	e79a0003 	ldr	r0, [sl, r3]
a3f81950:	e3a04000 	mov	r4, #0	; 0x0
a3f81954:	eb000025 	bl	a3f819f0 <printf>
a3f81958:	e1540008 	cmp	r4, r8
a3f8195c:	aa00000e 	bge	a3f8199c <HexDump+0x1e8>
a3f81960:	e59f907c 	ldr	r9, [pc, #124]	; a3f819e4 <HexDump+0x230>
a3f81964:	e59f607c 	ldr	r6, [pc, #124]	; a3f819e8 <HexDump+0x234>
a3f81968:	e7d53004 	ldrb	r3, [r5, r4]
a3f8196c:	e2433020 	sub	r3, r3, #32	; 0x20
a3f81970:	e353005d 	cmp	r3, #93	; 0x5d
a3f81974:	8a000003 	bhi	a3f81988 <HexDump+0x1d4>
a3f81978:	e79a0009 	ldr	r0, [sl, r9]
a3f8197c:	e7d51004 	ldrb	r1, [r5, r4]
a3f81980:	eb00001a 	bl	a3f819f0 <printf>
a3f81984:	ea000001 	b	a3f81990 <HexDump+0x1dc>
a3f81988:	e79a0006 	ldr	r0, [sl, r6]
a3f8198c:	eb000017 	bl	a3f819f0 <printf>
a3f81990:	e2844001 	add	r4, r4, #1	; 0x1
a3f81994:	e1540008 	cmp	r4, r8
a3f81998:	bafffff2 	blt	a3f81968 <HexDump+0x1b4>
a3f8199c:	e3570000 	cmp	r7, #0	; 0x0
a3f819a0:	da000005 	ble	a3f819bc <HexDump+0x208>
a3f819a4:	e1a04007 	mov	r4, r7
a3f819a8:	e51b2040 	ldr	r2, [fp, -#64]
a3f819ac:	e79a0002 	ldr	r0, [sl, r2]
a3f819b0:	eb00000e 	bl	a3f819f0 <printf>
a3f819b4:	e2544001 	subs	r4, r4, #1	; 0x1
a3f819b8:	1afffffa 	bne	a3f819a8 <HexDump+0x1f4>
a3f819bc:	e51b3038 	ldr	r3, [fp, -#56]
a3f819c0:	e79a0003 	ldr	r0, [sl, r3]
a3f819c4:	eb000009 	bl	a3f819f0 <printf>
a3f819c8:	e91baff0 	ldmdb	fp, {r4, r5, r6, r7, r8, r9, sl, fp, sp, pc}
a3f819cc:	ffffe81c 	swinv	0x00ffe81c
a3f819d0:	00004b78 	andeq	r4, r0, r8, ror fp
a3f819d4:	00004b7c 	andeq	r4, r0, ip, ror fp
a3f819d8:	00004b80 	andeq	r4, r0, r0, lsl #23
a3f819dc:	00004b84 	andeq	r4, r0, r4, lsl #23
a3f819e0:	00004b88 	andeq	r4, r0, r8, lsl #23
a3f819e4:	00004b8c 	andeq	r4, r0, ip, lsl #23
a3f819e8:	00004b90 	muleq	r0, r0, fp
a3f819ec:	00004b94 	muleq	r0, r4, fp

a3f819f0 <printf>:
a3f819f0:	e1a0c00d 	mov	ip, sp
a3f819f4:	e92d000f 	stmdb	sp!, {r0, r1, r2, r3}
a3f819f8:	e92ddc70 	stmdb	sp!, {r4, r5, r6, sl, fp, ip, lr, pc}
a3f819fc:	e24cb014 	sub	fp, ip, #20	; 0x14
a3f81a00:	e28b5008 	add	r5, fp, #8	; 0x8
a3f81a04:	e24dd00c 	sub	sp, sp, #12	; 0xc
a3f81a08:	e59b4004 	ldr	r4, [fp, #4]
a3f81a0c:	e59fa0fc 	ldr	sl, [pc, #252]	; a3f81b10 <printf+0x120>
a3f81a10:	e5d43000 	ldrb	r3, [r4]
a3f81a14:	e08fa00a 	add	sl, pc, sl
a3f81a18:	e3530000 	cmp	r3, #0	; 0x0
a3f81a1c:	0a000043 	beq	a3f81b30 <printf+0x140>
a3f81a20:	e59f60ec 	ldr	r6, [pc, #236]	; a3f81b14 <printf+0x124>
a3f81a24:	e20330ff 	and	r3, r3, #255	; 0xff
a3f81a28:	e3530025 	cmp	r3, #37	; 0x25
a3f81a2c:	1a000039 	bne	a3f81b18 <printf+0x128>
a3f81a30:	e2844001 	add	r4, r4, #1	; 0x1
a3f81a34:	e3a01001 	mov	r1, #1	; 0x1
a3f81a38:	e24b0028 	sub	r0, fp, #40	; 0x28
a3f81a3c:	e1a0c000 	mov	ip, r0
a3f81a40:	e3a0e000 	mov	lr, #0	; 0x0
a3f81a44:	e54b3028 	strb	r3, [fp, -#40]
a3f81a48:	e5d42000 	ldrb	r2, [r4]
a3f81a4c:	e2423063 	sub	r3, r2, #99	; 0x63
a3f81a50:	e3520078 	cmp	r2, #120	; 0x78
a3f81a54:	13530001 	cmpne	r3, #1	; 0x1
a3f81a58:	9a000004 	bls	a3f81a70 <printf+0x80>
a3f81a5c:	e20230ff 	and	r3, r2, #255	; 0xff
a3f81a60:	e3530073 	cmp	r3, #115	; 0x73
a3f81a64:	0a000001 	beq	a3f81a70 <printf+0x80>
a3f81a68:	e3530025 	cmp	r3, #37	; 0x25
a3f81a6c:	1a000004 	bne	a3f81a84 <printf+0x94>
a3f81a70:	e5d43000 	ldrb	r3, [r4]
a3f81a74:	e7cc3001 	strb	r3, [ip, r1]
a3f81a78:	e2811001 	add	r1, r1, #1	; 0x1
a3f81a7c:	e7cce001 	strb	lr, [ip, r1]
a3f81a80:	ea000004 	b	a3f81a98 <printf+0xa8>
a3f81a84:	e2844001 	add	r4, r4, #1	; 0x1
a3f81a88:	e7cc2001 	strb	r2, [ip, r1]
a3f81a8c:	e2811001 	add	r1, r1, #1	; 0x1
a3f81a90:	e3510009 	cmp	r1, #9	; 0x9
a3f81a94:	daffffeb 	ble	a3f81a48 <printf+0x58>
a3f81a98:	e4d41001 	ldrb	r1, [r4], #1
a3f81a9c:	e3510064 	cmp	r1, #100	; 0x64
a3f81aa0:	0a00000e 	beq	a3f81ae0 <printf+0xf0>
a3f81aa4:	ca000004 	bgt	a3f81abc <printf+0xcc>
a3f81aa8:	e3510025 	cmp	r1, #37	; 0x25
a3f81aac:	0a000014 	beq	a3f81b04 <printf+0x114>
a3f81ab0:	e3510063 	cmp	r1, #99	; 0x63
a3f81ab4:	0a000005 	beq	a3f81ad0 <printf+0xe0>
a3f81ab8:	ea000019 	b	a3f81b24 <printf+0x134>
a3f81abc:	e3510073 	cmp	r1, #115	; 0x73
a3f81ac0:	0a00000c 	beq	a3f81af8 <printf+0x108>
a3f81ac4:	e3510078 	cmp	r1, #120	; 0x78
a3f81ac8:	0a000007 	beq	a3f81aec <printf+0xfc>
a3f81acc:	ea000014 	b	a3f81b24 <printf+0x134>
a3f81ad0:	e2855004 	add	r5, r5, #4	; 0x4
a3f81ad4:	e5551004 	ldrb	r1, [r5, -#4]
a3f81ad8:	eb000015 	bl	a3f81b34 <PrintChar>
a3f81adc:	ea000010 	b	a3f81b24 <printf+0x134>
a3f81ae0:	e4951004 	ldr	r1, [r5], #4
a3f81ae4:	eb000018 	bl	a3f81b4c <PrintDec>
a3f81ae8:	ea00000d 	b	a3f81b24 <printf+0x134>
a3f81aec:	e4951004 	ldr	r1, [r5], #4
a3f81af0:	eb000096 	bl	a3f81d50 <PrintHex>
a3f81af4:	ea00000a 	b	a3f81b24 <printf+0x134>
a3f81af8:	e4951004 	ldr	r1, [r5], #4
a3f81afc:	eb000130 	bl	a3f81fc4 <PrintString>
a3f81b00:	ea000007 	b	a3f81b24 <printf+0x134>
a3f81b04:	e79a0006 	ldr	r0, [sl, r6]
a3f81b08:	eb000009 	bl	a3f81b34 <PrintChar>
a3f81b0c:	ea000004 	b	a3f81b24 <printf+0x134>
a3f81b10:	ffffe5e4 	swinv	0x00ffe5e4
a3f81b14:	00004b8c 	andeq	r4, r0, ip, lsl #23
a3f81b18:	e79a0006 	ldr	r0, [sl, r6]
a3f81b1c:	e4d41001 	ldrb	r1, [r4], #1
a3f81b20:	eb000003 	bl	a3f81b34 <PrintChar>
a3f81b24:	e5d43000 	ldrb	r3, [r4]
a3f81b28:	e3530000 	cmp	r3, #0	; 0x0
a3f81b2c:	1affffbc 	bne	a3f81a24 <printf+0x34>
a3f81b30:	e91bac70 	ldmdb	fp, {r4, r5, r6, sl, fp, sp, pc}

a3f81b34 <PrintChar>:
a3f81b34:	e1a0c00d 	mov	ip, sp
a3f81b38:	e92dd800 	stmdb	sp!, {fp, ip, lr, pc}
a3f81b3c:	e24cb004 	sub	fp, ip, #4	; 0x4
a3f81b40:	e20100ff 	and	r0, r1, #255	; 0xff
a3f81b44:	eb0004c4 	bl	a3f82e5c <SerialOutputByte>
a3f81b48:	e91ba800 	ldmdb	fp, {fp, sp, pc}

a3f81b4c <PrintDec>:
a3f81b4c:	e1a0c00d 	mov	ip, sp
a3f81b50:	e92dd9f0 	stmdb	sp!, {r4, r5, r6, r7, r8, fp, ip, lr, pc}
a3f81b54:	e24cb004 	sub	fp, ip, #4	; 0x4
a3f81b58:	e3a08000 	mov	r8, #0	; 0x0
a3f81b5c:	e3a07001 	mov	r7, #1	; 0x1
a3f81b60:	e1a05000 	mov	r5, r0
a3f81b64:	e1a04008 	mov	r4, r8
a3f81b68:	e24dd010 	sub	sp, sp, #16	; 0x10
a3f81b6c:	e7d52008 	ldrb	r2, [r5, r8]
a3f81b70:	e1a06001 	mov	r6, r1
a3f81b74:	e50b8030 	str	r8, [fp, -#48]
a3f81b78:	e1520008 	cmp	r2, r8
a3f81b7c:	ea00001c 	b	a3f81bf4 <PrintDec+0xa8>
a3f81b80:	e2423031 	sub	r3, r2, #49	; 0x31
a3f81b84:	e3530008 	cmp	r3, #8	; 0x8
a3f81b88:	8a000014 	bhi	a3f81be0 <PrintDec+0x94>
a3f81b8c:	e3a0e000 	mov	lr, #0	; 0x0
a3f81b90:	e24bc02c 	sub	ip, fp, #44	; 0x2c
a3f81b94:	e7d52004 	ldrb	r2, [r5, r4]
a3f81b98:	e24b1030 	sub	r1, fp, #48	; 0x30
a3f81b9c:	e2423030 	sub	r3, r2, #48	; 0x30
a3f81ba0:	e3530009 	cmp	r3, #9	; 0x9
a3f81ba4:	8a000007 	bhi	a3f81bc8 <PrintDec+0x7c>
a3f81ba8:	e1a0000c 	mov	r0, ip
a3f81bac:	e2844001 	add	r4, r4, #1	; 0x1
a3f81bb0:	e7c0200e 	strb	r2, [r0, lr]
a3f81bb4:	e7d52004 	ldrb	r2, [r5, r4]
a3f81bb8:	e28ee001 	add	lr, lr, #1	; 0x1
a3f81bbc:	e2423030 	sub	r3, r2, #48	; 0x30
a3f81bc0:	e3530009 	cmp	r3, #9	; 0x9
a3f81bc4:	9afffff8 	bls	a3f81bac <PrintDec+0x60>
a3f81bc8:	e2444001 	sub	r4, r4, #1	; 0x1
a3f81bcc:	e1a0000c 	mov	r0, ip
a3f81bd0:	e3a03000 	mov	r3, #0	; 0x0
a3f81bd4:	e7cc300e 	strb	r3, [ip, lr]
a3f81bd8:	ebfffedb 	bl	a3f8174c <DecToLong>
a3f81bdc:	ea000001 	b	a3f81be8 <PrintDec+0x9c>
a3f81be0:	e3520030 	cmp	r2, #48	; 0x30
a3f81be4:	03a08001 	moveq	r8, #1	; 0x1
a3f81be8:	e2844001 	add	r4, r4, #1	; 0x1
a3f81bec:	e7d52004 	ldrb	r2, [r5, r4]
a3f81bf0:	e3520000 	cmp	r2, #0	; 0x0
a3f81bf4:	0a000001 	beq	a3f81c00 <PrintDec+0xb4>
a3f81bf8:	e3520064 	cmp	r2, #100	; 0x64
a3f81bfc:	1affffdf 	bne	a3f81b80 <PrintDec+0x34>
a3f81c00:	e51b3030 	ldr	r3, [fp, -#48]
a3f81c04:	e3530000 	cmp	r3, #0	; 0x0
a3f81c08:	0a000032 	beq	a3f81cd8 <PrintDec+0x18c>
a3f81c0c:	e3530009 	cmp	r3, #9	; 0x9
a3f81c10:	c3a03009 	movgt	r3, #9	; 0x9
a3f81c14:	c50b3030 	strgt	r3, [fp, -#48]
a3f81c18:	e51b1030 	ldr	r1, [fp, -#48]
a3f81c1c:	e3a0000a 	mov	r0, #10	; 0xa
a3f81c20:	eb0000f7 	bl	a3f82004 <Power>
a3f81c24:	e1a01000 	mov	r1, r0
a3f81c28:	e1a00006 	mov	r0, r6
a3f81c2c:	eb000b61 	bl	a3f849b8 <__modsi3>
a3f81c30:	e1a06000 	mov	r6, r0
a3f81c34:	e51b1030 	ldr	r1, [fp, -#48]
a3f81c38:	e3a0000a 	mov	r0, #10	; 0xa
a3f81c3c:	e2411001 	sub	r1, r1, #1	; 0x1
a3f81c40:	eb0000ef 	bl	a3f82004 <Power>
a3f81c44:	e2504000 	subs	r4, r0, #0	; 0x0
a3f81c48:	da00003d 	ble	a3f81d44 <PrintDec+0x1f8>
a3f81c4c:	e1a00006 	mov	r0, r6
a3f81c50:	e1a01004 	mov	r1, r4
a3f81c54:	eb000b24 	bl	a3f848ec <__divsi3>
a3f81c58:	e1a05000 	mov	r5, r0
a3f81c5c:	e1a00006 	mov	r0, r6
a3f81c60:	e1a01004 	mov	r1, r4
a3f81c64:	eb000b53 	bl	a3f849b8 <__modsi3>
a3f81c68:	e1a06000 	mov	r6, r0
a3f81c6c:	e3540001 	cmp	r4, #1	; 0x1
a3f81c70:	13a03000 	movne	r3, #0	; 0x0
a3f81c74:	03a03001 	moveq	r3, #1	; 0x1
a3f81c78:	e3550000 	cmp	r5, #0	; 0x0
a3f81c7c:	13a03001 	movne	r3, #1	; 0x1
a3f81c80:	e3530000 	cmp	r3, #0	; 0x0
a3f81c84:	13a07000 	movne	r7, #0	; 0x0
a3f81c88:	e3570001 	cmp	r7, #1	; 0x1
a3f81c8c:	1a000007 	bne	a3f81cb0 <PrintDec+0x164>
a3f81c90:	e3580000 	cmp	r8, #0	; 0x0
a3f81c94:	0a000002 	beq	a3f81ca4 <PrintDec+0x158>
a3f81c98:	e3a00030 	mov	r0, #48	; 0x30
a3f81c9c:	eb00046e 	bl	a3f82e5c <SerialOutputByte>
a3f81ca0:	ea000005 	b	a3f81cbc <PrintDec+0x170>
a3f81ca4:	e3a00020 	mov	r0, #32	; 0x20
a3f81ca8:	eb00046b 	bl	a3f82e5c <SerialOutputByte>
a3f81cac:	ea000002 	b	a3f81cbc <PrintDec+0x170>
a3f81cb0:	e2850030 	add	r0, r5, #48	; 0x30
a3f81cb4:	e20000ff 	and	r0, r0, #255	; 0xff
a3f81cb8:	eb000467 	bl	a3f82e5c <SerialOutputByte>
a3f81cbc:	e59f3084 	ldr	r3, [pc, #132]	; a3f81d48 <PrintDec+0x1fc>
a3f81cc0:	e0c12493 	smull	r2, r1, r3, r4
a3f81cc4:	e1a02fc4 	mov	r2, r4, asr #31
a3f81cc8:	e0624141 	rsb	r4, r2, r1, asr #2
a3f81ccc:	e3540000 	cmp	r4, #0	; 0x0
a3f81cd0:	caffffdd 	bgt	a3f81c4c <PrintDec+0x100>
a3f81cd4:	e91ba9f0 	ldmdb	fp, {r4, r5, r6, r7, r8, fp, sp, pc}
a3f81cd8:	e59f406c 	ldr	r4, [pc, #108]	; a3f81d4c <PrintDec+0x200>
a3f81cdc:	e1a00006 	mov	r0, r6
a3f81ce0:	e1a01004 	mov	r1, r4
a3f81ce4:	eb000b00 	bl	a3f848ec <__divsi3>
a3f81ce8:	e1a05000 	mov	r5, r0
a3f81cec:	e1a00006 	mov	r0, r6
a3f81cf0:	e1a01004 	mov	r1, r4
a3f81cf4:	eb000b2f 	bl	a3f849b8 <__modsi3>
a3f81cf8:	e1a06000 	mov	r6, r0
a3f81cfc:	e3540001 	cmp	r4, #1	; 0x1
a3f81d00:	13a03000 	movne	r3, #0	; 0x0
a3f81d04:	03a03001 	moveq	r3, #1	; 0x1
a3f81d08:	e3550000 	cmp	r5, #0	; 0x0
a3f81d0c:	13a03001 	movne	r3, #1	; 0x1
a3f81d10:	e3530000 	cmp	r3, #0	; 0x0
a3f81d14:	13a07000 	movne	r7, #0	; 0x0
a3f81d18:	e3570000 	cmp	r7, #0	; 0x0
a3f81d1c:	1a000002 	bne	a3f81d2c <PrintDec+0x1e0>
a3f81d20:	e2850030 	add	r0, r5, #48	; 0x30
a3f81d24:	e20000ff 	and	r0, r0, #255	; 0xff
a3f81d28:	eb00044b 	bl	a3f82e5c <SerialOutputByte>
a3f81d2c:	e59f3014 	ldr	r3, [pc, #20]	; a3f81d48 <PrintDec+0x1fc>
a3f81d30:	e0c12493 	smull	r2, r1, r3, r4
a3f81d34:	e1a02fc4 	mov	r2, r4, asr #31
a3f81d38:	e0624141 	rsb	r4, r2, r1, asr #2
a3f81d3c:	e3540000 	cmp	r4, #0	; 0x0
a3f81d40:	caffffe5 	bgt	a3f81cdc <PrintDec+0x190>
a3f81d44:	e91ba9f0 	ldmdb	fp, {r4, r5, r6, r7, r8, fp, sp, pc}
a3f81d48:	66666667 	strvsbt	r6, [r6], -r7, ror #12
a3f81d4c:	3b9aca00 	blcc	a2634554 <_ld_text_and_data_size+0xa262e158>

a3f81d50 <PrintHex>:
a3f81d50:	e1a0c00d 	mov	ip, sp
a3f81d54:	e92dd9f0 	stmdb	sp!, {r4, r5, r6, r7, r8, fp, ip, lr, pc}
a3f81d58:	e24cb004 	sub	fp, ip, #4	; 0x4
a3f81d5c:	e3a08000 	mov	r8, #0	; 0x0
a3f81d60:	e3a06001 	mov	r6, #1	; 0x1
a3f81d64:	e1a05008 	mov	r5, r8
a3f81d68:	e1a04000 	mov	r4, r0
a3f81d6c:	e24dd014 	sub	sp, sp, #20	; 0x14
a3f81d70:	e7d42005 	ldrb	r2, [r4, r5]
a3f81d74:	e24b7034 	sub	r7, fp, #52	; 0x34
a3f81d78:	e50b1034 	str	r1, [fp, -#52]
a3f81d7c:	e50b8030 	str	r8, [fp, -#48]
a3f81d80:	e1520008 	cmp	r2, r8
a3f81d84:	ea00001c 	b	a3f81dfc <PrintHex+0xac>
a3f81d88:	e2423031 	sub	r3, r2, #49	; 0x31
a3f81d8c:	e3530008 	cmp	r3, #8	; 0x8
a3f81d90:	8a000014 	bhi	a3f81de8 <PrintHex+0x98>
a3f81d94:	e3a0e000 	mov	lr, #0	; 0x0
a3f81d98:	e24bc02c 	sub	ip, fp, #44	; 0x2c
a3f81d9c:	e7d42005 	ldrb	r2, [r4, r5]
a3f81da0:	e24b1030 	sub	r1, fp, #48	; 0x30
a3f81da4:	e2423030 	sub	r3, r2, #48	; 0x30
a3f81da8:	e3530009 	cmp	r3, #9	; 0x9
a3f81dac:	8a000007 	bhi	a3f81dd0 <PrintHex+0x80>
a3f81db0:	e1a0000c 	mov	r0, ip
a3f81db4:	e2855001 	add	r5, r5, #1	; 0x1
a3f81db8:	e7c0200e 	strb	r2, [r0, lr]
a3f81dbc:	e7d42005 	ldrb	r2, [r4, r5]
a3f81dc0:	e28ee001 	add	lr, lr, #1	; 0x1
a3f81dc4:	e2423030 	sub	r3, r2, #48	; 0x30
a3f81dc8:	e3530009 	cmp	r3, #9	; 0x9
a3f81dcc:	9afffff8 	bls	a3f81db4 <PrintHex+0x64>
a3f81dd0:	e2455001 	sub	r5, r5, #1	; 0x1
a3f81dd4:	e1a0000c 	mov	r0, ip
a3f81dd8:	e3a03000 	mov	r3, #0	; 0x0
a3f81ddc:	e7cc300e 	strb	r3, [ip, lr]
a3f81de0:	ebfffe59 	bl	a3f8174c <DecToLong>
a3f81de4:	ea000001 	b	a3f81df0 <PrintHex+0xa0>
a3f81de8:	e3520030 	cmp	r2, #48	; 0x30
a3f81dec:	03a08001 	moveq	r8, #1	; 0x1
a3f81df0:	e2855001 	add	r5, r5, #1	; 0x1
a3f81df4:	e7d42005 	ldrb	r2, [r4, r5]
a3f81df8:	e3520000 	cmp	r2, #0	; 0x0
a3f81dfc:	0a000001 	beq	a3f81e08 <PrintHex+0xb8>
a3f81e00:	e3520078 	cmp	r2, #120	; 0x78
a3f81e04:	1affffdf 	bne	a3f81d88 <PrintHex+0x38>
a3f81e08:	e51b0030 	ldr	r0, [fp, -#48]
a3f81e0c:	e51b3034 	ldr	r3, [fp, -#52]
a3f81e10:	e3500000 	cmp	r0, #0	; 0x0
a3f81e14:	e2032cff 	and	r2, r3, #65280	; 0xff00
a3f81e18:	e1a02402 	mov	r2, r2, lsl #8
a3f81e1c:	e1822c03 	orr	r2, r2, r3, lsl #24
a3f81e20:	e20318ff 	and	r1, r3, #16711680	; 0xff0000
a3f81e24:	e1822421 	orr	r2, r2, r1, lsr #8
a3f81e28:	e1822c23 	orr	r2, r2, r3, lsr #24
a3f81e2c:	e50b2034 	str	r2, [fp, -#52]
a3f81e30:	0a000046 	beq	a3f81f50 <PrintHex+0x200>
a3f81e34:	e3100001 	tst	r0, #1	; 0x1
a3f81e38:	0a000017 	beq	a3f81e9c <PrintHex+0x14c>
a3f81e3c:	e2603007 	rsb	r3, r0, #7	; 0x7
a3f81e40:	e0833fa3 	add	r3, r3, r3, lsr #31
a3f81e44:	e7d720c3 	ldrb	r2, [r7, r3, asr #1]
a3f81e48:	e212000f 	ands	r0, r2, #15	; 0xf
a3f81e4c:	03a06001 	moveq	r6, #1	; 0x1
a3f81e50:	13a06000 	movne	r6, #0	; 0x0
a3f81e54:	e3500009 	cmp	r0, #9	; 0x9
a3f81e58:	93800030 	orrls	r0, r0, #48	; 0x30
a3f81e5c:	82803037 	addhi	r3, r0, #55	; 0x37
a3f81e60:	820300ff 	andhi	r0, r3, #255	; 0xff
a3f81e64:	e3560000 	cmp	r6, #0	; 0x0
a3f81e68:	0a000007 	beq	a3f81e8c <PrintHex+0x13c>
a3f81e6c:	e3580000 	cmp	r8, #0	; 0x0
a3f81e70:	0a000002 	beq	a3f81e80 <PrintHex+0x130>
a3f81e74:	e3a00030 	mov	r0, #48	; 0x30
a3f81e78:	eb0003f7 	bl	a3f82e5c <SerialOutputByte>
a3f81e7c:	ea000003 	b	a3f81e90 <PrintHex+0x140>
a3f81e80:	e3a00020 	mov	r0, #32	; 0x20
a3f81e84:	eb0003f4 	bl	a3f82e5c <SerialOutputByte>
a3f81e88:	ea000000 	b	a3f81e90 <PrintHex+0x140>
a3f81e8c:	eb0003f2 	bl	a3f82e5c <SerialOutputByte>
a3f81e90:	e51b3030 	ldr	r3, [fp, -#48]
a3f81e94:	e2433001 	sub	r3, r3, #1	; 0x1
a3f81e98:	e50b3030 	str	r3, [fp, -#48]
a3f81e9c:	e51b3030 	ldr	r3, [fp, -#48]
a3f81ea0:	e2633008 	rsb	r3, r3, #8	; 0x8
a3f81ea4:	e0833fa3 	add	r3, r3, r3, lsr #31
a3f81ea8:	e1a050c3 	mov	r5, r3, asr #1
a3f81eac:	e3550003 	cmp	r5, #3	; 0x3
a3f81eb0:	ca000042 	bgt	a3f81fc0 <PrintHex+0x270>
a3f81eb4:	e7d72005 	ldrb	r2, [r7, r5]
a3f81eb8:	e1b00222 	movs	r0, r2, lsr #4
a3f81ebc:	13a06000 	movne	r6, #0	; 0x0
a3f81ec0:	e3500009 	cmp	r0, #9	; 0x9
a3f81ec4:	e202400f 	and	r4, r2, #15	; 0xf
a3f81ec8:	93800030 	orrls	r0, r0, #48	; 0x30
a3f81ecc:	82803037 	addhi	r3, r0, #55	; 0x37
a3f81ed0:	820300ff 	andhi	r0, r3, #255	; 0xff
a3f81ed4:	e3560000 	cmp	r6, #0	; 0x0
a3f81ed8:	0a000007 	beq	a3f81efc <PrintHex+0x1ac>
a3f81edc:	e3580000 	cmp	r8, #0	; 0x0
a3f81ee0:	0a000002 	beq	a3f81ef0 <PrintHex+0x1a0>
a3f81ee4:	e3a00030 	mov	r0, #48	; 0x30
a3f81ee8:	eb0003db 	bl	a3f82e5c <SerialOutputByte>
a3f81eec:	ea000003 	b	a3f81f00 <PrintHex+0x1b0>
a3f81ef0:	e3a00020 	mov	r0, #32	; 0x20
a3f81ef4:	eb0003d8 	bl	a3f82e5c <SerialOutputByte>
a3f81ef8:	ea000000 	b	a3f81f00 <PrintHex+0x1b0>
a3f81efc:	eb0003d6 	bl	a3f82e5c <SerialOutputByte>
a3f81f00:	e3540000 	cmp	r4, #0	; 0x0
a3f81f04:	13a06000 	movne	r6, #0	; 0x0
a3f81f08:	e3540009 	cmp	r4, #9	; 0x9
a3f81f0c:	93840030 	orrls	r0, r4, #48	; 0x30
a3f81f10:	82840037 	addhi	r0, r4, #55	; 0x37
a3f81f14:	e3560000 	cmp	r6, #0	; 0x0
a3f81f18:	0a000007 	beq	a3f81f3c <PrintHex+0x1ec>
a3f81f1c:	e3580000 	cmp	r8, #0	; 0x0
a3f81f20:	0a000002 	beq	a3f81f30 <PrintHex+0x1e0>
a3f81f24:	e3a00030 	mov	r0, #48	; 0x30
a3f81f28:	eb0003cb 	bl	a3f82e5c <SerialOutputByte>
a3f81f2c:	ea000003 	b	a3f81f40 <PrintHex+0x1f0>
a3f81f30:	e3a00020 	mov	r0, #32	; 0x20
a3f81f34:	eb0003c8 	bl	a3f82e5c <SerialOutputByte>
a3f81f38:	ea000000 	b	a3f81f40 <PrintHex+0x1f0>
a3f81f3c:	eb0003c6 	bl	a3f82e5c <SerialOutputByte>
a3f81f40:	e2855001 	add	r5, r5, #1	; 0x1
a3f81f44:	e3550003 	cmp	r5, #3	; 0x3
a3f81f48:	daffffd9 	ble	a3f81eb4 <PrintHex+0x164>
a3f81f4c:	e91ba9f0 	ldmdb	fp, {r4, r5, r6, r7, r8, fp, sp, pc}
a3f81f50:	e1a05000 	mov	r5, r0
a3f81f54:	e7d72005 	ldrb	r2, [r7, r5]
a3f81f58:	e1b00222 	movs	r0, r2, lsr #4
a3f81f5c:	13a06000 	movne	r6, #0	; 0x0
a3f81f60:	e3500009 	cmp	r0, #9	; 0x9
a3f81f64:	e202400f 	and	r4, r2, #15	; 0xf
a3f81f68:	93800030 	orrls	r0, r0, #48	; 0x30
a3f81f6c:	82803037 	addhi	r3, r0, #55	; 0x37
a3f81f70:	820300ff 	andhi	r0, r3, #255	; 0xff
a3f81f74:	e3560000 	cmp	r6, #0	; 0x0
a3f81f78:	1a000000 	bne	a3f81f80 <PrintHex+0x230>
a3f81f7c:	eb0003b6 	bl	a3f82e5c <SerialOutputByte>
a3f81f80:	e3550003 	cmp	r5, #3	; 0x3
a3f81f84:	13a03000 	movne	r3, #0	; 0x0
a3f81f88:	03a03001 	moveq	r3, #1	; 0x1
a3f81f8c:	e3540000 	cmp	r4, #0	; 0x0
a3f81f90:	13a03001 	movne	r3, #1	; 0x1
a3f81f94:	e3530000 	cmp	r3, #0	; 0x0
a3f81f98:	13a06000 	movne	r6, #0	; 0x0
a3f81f9c:	e3540009 	cmp	r4, #9	; 0x9
a3f81fa0:	93840030 	orrls	r0, r4, #48	; 0x30
a3f81fa4:	82840037 	addhi	r0, r4, #55	; 0x37
a3f81fa8:	e3560000 	cmp	r6, #0	; 0x0
a3f81fac:	1a000000 	bne	a3f81fb4 <PrintHex+0x264>
a3f81fb0:	eb0003a9 	bl	a3f82e5c <SerialOutputByte>
a3f81fb4:	e2855001 	add	r5, r5, #1	; 0x1
a3f81fb8:	e3550003 	cmp	r5, #3	; 0x3
a3f81fbc:	daffffe4 	ble	a3f81f54 <PrintHex+0x204>
a3f81fc0:	e91ba9f0 	ldmdb	fp, {r4, r5, r6, r7, r8, fp, sp, pc}

a3f81fc4 <PrintString>:
a3f81fc4:	e1a0c00d 	mov	ip, sp
a3f81fc8:	e92dd810 	stmdb	sp!, {r4, fp, ip, lr, pc}
a3f81fcc:	e24cb004 	sub	fp, ip, #4	; 0x4
a3f81fd0:	e1a04001 	mov	r4, r1
a3f81fd4:	e3540000 	cmp	r4, #0	; 0x0
a3f81fd8:	13500000 	cmpne	r0, #0	; 0x0
a3f81fdc:	0a000007 	beq	a3f82000 <PrintString+0x3c>
a3f81fe0:	e5d43000 	ldrb	r3, [r4]
a3f81fe4:	e3530000 	cmp	r3, #0	; 0x0
a3f81fe8:	0a000004 	beq	a3f82000 <PrintString+0x3c>
a3f81fec:	e5d40000 	ldrb	r0, [r4]
a3f81ff0:	eb000399 	bl	a3f82e5c <SerialOutputByte>
a3f81ff4:	e5f43001 	ldrb	r3, [r4, #1]!
a3f81ff8:	e3530000 	cmp	r3, #0	; 0x0
a3f81ffc:	1afffffa 	bne	a3f81fec <PrintString+0x28>
a3f82000:	e91ba810 	ldmdb	fp, {r4, fp, sp, pc}

a3f82004 <Power>:
a3f82004:	e1a03000 	mov	r3, r0
a3f82008:	e2411002 	sub	r1, r1, #2	; 0x2
a3f8200c:	e3710001 	cmn	r1, #1	; 0x1
a3f82010:	01a0f00e 	moveq	pc, lr
a3f82014:	e2411001 	sub	r1, r1, #1	; 0x1
a3f82018:	e3710001 	cmn	r1, #1	; 0x1
a3f8201c:	e0000093 	mul	r0, r3, r0
a3f82020:	1afffffb 	bne	a3f82014 <Power+0x10>
a3f82024:	e1a0f00e 	mov	pc, lr

a3f82028 <c_main>:
a3f82028:	e1a0c00d 	mov	ip, sp
a3f8202c:	e92ddff0 	stmdb	sp!, {r4, r5, r6, r7, r8, r9, sl, fp, ip, lr, pc}
a3f82030:	e24cb004 	sub	fp, ip, #4	; 0x4
a3f82034:	e3a03008 	mov	r3, #8	; 0x8
a3f82038:	e1a00003 	mov	r0, r3
a3f8203c:	e59fa23c 	ldr	sl, [pc, #572]	; a3f82280 <c_main+0x258>
a3f82040:	e59f223c 	ldr	r2, [pc, #572]	; a3f82284 <c_main+0x25c>
a3f82044:	e08fa00a 	add	sl, pc, sl
a3f82048:	e79a1002 	ldr	r1, [sl, r2]
a3f8204c:	e24dd0f0 	sub	sp, sp, #240	; 0xf0
a3f82050:	e5813000 	str	r3, [r1]
a3f82054:	e5813004 	str	r3, [r1, #4]
a3f82058:	eb00035c 	bl	a3f82dd0 <SerialInit>
a3f8205c:	eb00057b 	bl	a3f83650 <TimerInit>
a3f82060:	e59f3220 	ldr	r3, [pc, #544]	; a3f82288 <c_main+0x260>
a3f82064:	e59f2220 	ldr	r2, [pc, #544]	; a3f8228c <c_main+0x264>
a3f82068:	e79a0003 	ldr	r0, [sl, r3]
a3f8206c:	e3a08000 	mov	r8, #0	; 0x0
a3f82070:	e50b2118 	str	r2, [fp, -#280]
a3f82074:	ebfffe5d 	bl	a3f819f0 <printf>
a3f82078:	e59f3210 	ldr	r3, [pc, #528]	; a3f82290 <c_main+0x268>
a3f8207c:	e59f2210 	ldr	r2, [pc, #528]	; a3f82294 <c_main+0x26c>
a3f82080:	e79a0003 	ldr	r0, [sl, r3]
a3f82084:	e59f320c 	ldr	r3, [pc, #524]	; a3f82298 <c_main+0x270>
a3f82088:	e50b2114 	str	r2, [fp, -#276]
a3f8208c:	e50b30fc 	str	r3, [fp, -#252]
a3f82090:	ebfffe56 	bl	a3f819f0 <printf>
a3f82094:	e59f3200 	ldr	r3, [pc, #512]	; a3f8229c <c_main+0x274>
a3f82098:	e59f2200 	ldr	r2, [pc, #512]	; a3f822a0 <c_main+0x278>
a3f8209c:	e79a0003 	ldr	r0, [sl, r3]
a3f820a0:	e59f31fc 	ldr	r3, [pc, #508]	; a3f822a4 <c_main+0x27c>
a3f820a4:	e50b2100 	str	r2, [fp, -#256]
a3f820a8:	e50b3104 	str	r3, [fp, -#260]
a3f820ac:	ebfffe4f 	bl	a3f819f0 <printf>
a3f820b0:	e59f31f0 	ldr	r3, [pc, #496]	; a3f822a8 <c_main+0x280>
a3f820b4:	e59f21f0 	ldr	r2, [pc, #496]	; a3f822ac <c_main+0x284>
a3f820b8:	e79a0003 	ldr	r0, [sl, r3]
a3f820bc:	e59f31ec 	ldr	r3, [pc, #492]	; a3f822b0 <c_main+0x288>
a3f820c0:	e3a09001 	mov	r9, #1	; 0x1
a3f820c4:	e50b2108 	str	r2, [fp, -#264]
a3f820c8:	e50b310c 	str	r3, [fp, -#268]
a3f820cc:	ebfffe47 	bl	a3f819f0 <printf>
a3f820d0:	eb0002dc 	bl	a3f82c48 <EthInit>
a3f820d4:	e59f31d8 	ldr	r3, [pc, #472]	; a3f822b4 <c_main+0x28c>
a3f820d8:	e59f71d8 	ldr	r7, [pc, #472]	; a3f822b8 <c_main+0x290>
a3f820dc:	e79a0003 	ldr	r0, [sl, r3]
a3f820e0:	e59f51d4 	ldr	r5, [pc, #468]	; a3f822bc <c_main+0x294>
a3f820e4:	ebfffe41 	bl	a3f819f0 <printf>
a3f820e8:	e24b20a8 	sub	r2, fp, #168	; 0xa8
a3f820ec:	e24b60f8 	sub	r6, fp, #248	; 0xf8
a3f820f0:	e50b2110 	str	r2, [fp, -#272]
a3f820f4:	eb000556 	bl	a3f83654 <GetTime>
a3f820f8:	e51b3118 	ldr	r3, [fp, -#280]
a3f820fc:	e2804001 	add	r4, r0, #1	; 0x1
a3f82100:	e79a0003 	ldr	r0, [sl, r3]
a3f82104:	ebfffe39 	bl	a3f819f0 <printf>
a3f82108:	eb000551 	bl	a3f83654 <GetTime>
a3f8210c:	e1500004 	cmp	r0, r4
a3f82110:	2a000004 	bcs	a3f82128 <c_main+0x100>
a3f82114:	e5973000 	ldr	r3, [r7]
a3f82118:	e3130001 	tst	r3, #1	; 0x1
a3f8211c:	0afffff9 	beq	a3f82108 <c_main+0xe0>
a3f82120:	e3a09000 	mov	r9, #0	; 0x0
a3f82124:	e5953000 	ldr	r3, [r5]
a3f82128:	e3590000 	cmp	r9, #0	; 0x0
a3f8212c:	0a000002 	beq	a3f8213c <c_main+0x114>
a3f82130:	e2888001 	add	r8, r8, #1	; 0x1
a3f82134:	e3580002 	cmp	r8, #2	; 0x2
a3f82138:	daffffed 	ble	a3f820f4 <c_main+0xcc>
a3f8213c:	e3590000 	cmp	r9, #0	; 0x0
a3f82140:	0a000012 	beq	a3f82190 <c_main+0x168>
a3f82144:	e59f3174 	ldr	r3, [pc, #372]	; a3f822c0 <c_main+0x298>
a3f82148:	e79a0003 	ldr	r0, [sl, r3]
a3f8214c:	ebfffe27 	bl	a3f819f0 <printf>
a3f82150:	e51b2114 	ldr	r2, [fp, -#276]
a3f82154:	e59f5168 	ldr	r5, [pc, #360]	; a3f822c4 <c_main+0x29c>
a3f82158:	e79a4002 	ldr	r4, [sl, r2]
a3f8215c:	ea000000 	b	a3f82164 <c_main+0x13c>
a3f82160:	e2844014 	add	r4, r4, #20	; 0x14
a3f82164:	e5940000 	ldr	r0, [r4]
a3f82168:	e3500000 	cmp	r0, #0	; 0x0
a3f8216c:	0a000003 	beq	a3f82180 <c_main+0x158>
a3f82170:	e79a1005 	ldr	r1, [sl, r5]
a3f82174:	ebfffd11 	bl	a3f815c0 <StrCmp>
a3f82178:	e3500000 	cmp	r0, #0	; 0x0
a3f8217c:	1afffff7 	bne	a3f82160 <c_main+0x138>
a3f82180:	e1a00004 	mov	r0, r4
a3f82184:	e3a01001 	mov	r1, #1	; 0x1
a3f82188:	e3a02000 	mov	r2, #0	; 0x0
a3f8218c:	ebfffa08 	bl	a3f809b4 <DoBootKernel>
a3f82190:	e51b30fc 	ldr	r3, [fp, -#252]
a3f82194:	e79a0003 	ldr	r0, [sl, r3]
a3f82198:	ebfffe14 	bl	a3f819f0 <printf>
a3f8219c:	e51b2100 	ldr	r2, [fp, -#256]
a3f821a0:	e79a0002 	ldr	r0, [sl, r2]
a3f821a4:	e51b7110 	ldr	r7, [fp, -#272]
a3f821a8:	ebfffe10 	bl	a3f819f0 <printf>
a3f821ac:	e3a00000 	mov	r0, #0	; 0x0
a3f821b0:	ebfff984 	bl	a3f807c8 <DisplayPrompt>
a3f821b4:	e1a00007 	mov	r0, r7
a3f821b8:	e3a01080 	mov	r1, #128	; 0x80
a3f821bc:	e3a02ee1 	mov	r2, #3600	; 0xe10
a3f821c0:	ebfff98f 	bl	a3f80804 <GetCommand>
a3f821c4:	e55b30a8 	ldrb	r3, [fp, -#168]
a3f821c8:	e3530000 	cmp	r3, #0	; 0x0
a3f821cc:	0afffff6 	beq	a3f821ac <c_main+0x184>
a3f821d0:	e51b0110 	ldr	r0, [fp, -#272]
a3f821d4:	e1a01006 	mov	r1, r6
a3f821d8:	ebfff9cc 	bl	a3f80910 <GetArgs>
a3f821dc:	e51b3114 	ldr	r3, [fp, -#276]
a3f821e0:	e79a4003 	ldr	r4, [sl, r3]
a3f821e4:	e1a05000 	mov	r5, r0
a3f821e8:	ea000000 	b	a3f821f0 <c_main+0x1c8>
a3f821ec:	e2844014 	add	r4, r4, #20	; 0x14
a3f821f0:	e5941000 	ldr	r1, [r4]
a3f821f4:	e3510000 	cmp	r1, #0	; 0x0
a3f821f8:	0a000008 	beq	a3f82220 <c_main+0x1f8>
a3f821fc:	e51b00f8 	ldr	r0, [fp, -#248]
a3f82200:	ebfffcee 	bl	a3f815c0 <StrCmp>
a3f82204:	e3500000 	cmp	r0, #0	; 0x0
a3f82208:	1afffff7 	bne	a3f821ec <c_main+0x1c4>
a3f8220c:	e1a00004 	mov	r0, r4
a3f82210:	e1a01005 	mov	r1, r5
a3f82214:	e1a02006 	mov	r2, r6
a3f82218:	e1a0e00f 	mov	lr, pc
a3f8221c:	e594f004 	ldr	pc, [r4, #4]
a3f82220:	e51b2104 	ldr	r2, [fp, -#260]
a3f82224:	e51b00f8 	ldr	r0, [fp, -#248]
a3f82228:	e79a1002 	ldr	r1, [sl, r2]
a3f8222c:	ebfffce3 	bl	a3f815c0 <StrCmp>
a3f82230:	e3500000 	cmp	r0, #0	; 0x0
a3f82234:	0a000005 	beq	a3f82250 <c_main+0x228>
a3f82238:	e51b3108 	ldr	r3, [fp, -#264]
a3f8223c:	e51b00f8 	ldr	r0, [fp, -#248]
a3f82240:	e79a1003 	ldr	r1, [sl, r3]
a3f82244:	ebfffcdd 	bl	a3f815c0 <StrCmp>
a3f82248:	e3500000 	cmp	r0, #0	; 0x0
a3f8224c:	1a000003 	bne	a3f82260 <c_main+0x238>
a3f82250:	e1a00005 	mov	r0, r5
a3f82254:	e1a01006 	mov	r1, r6
a3f82258:	eb00001b 	bl	a3f822cc <DoPrintfHelp>
a3f8225c:	eaffffd2 	b	a3f821ac <c_main+0x184>
a3f82260:	e5943000 	ldr	r3, [r4]
a3f82264:	e3530000 	cmp	r3, #0	; 0x0
a3f82268:	1affffcf 	bne	a3f821ac <c_main+0x184>
a3f8226c:	e51b210c 	ldr	r2, [fp, -#268]
a3f82270:	e51b10f8 	ldr	r1, [fp, -#248]
a3f82274:	e79a0002 	ldr	r0, [sl, r2]
a3f82278:	ebfffddc 	bl	a3f819f0 <printf>
a3f8227c:	eaffffca 	b	a3f821ac <c_main+0x184>
a3f82280:	ffffdfb4 	swinv	0x00ffdfb4
a3f82284:	00004b98 	muleq	r0, r8, fp
a3f82288:	00004b9c 	muleq	r0, ip, fp
a3f8228c:	00004ba0 	andeq	r4, r0, r0, lsr #23
a3f82290:	00004ba4 	andeq	r4, r0, r4, lsr #23
a3f82294:	00004ba8 	andeq	r4, r0, r8, lsr #23
a3f82298:	00004bac 	andeq	r4, r0, ip, lsr #23
a3f8229c:	00004bb0 	streqh	r4, [r0], -r0
a3f822a0:	00004bb4 	streqh	r4, [r0], -r4
a3f822a4:	00004bb8 	streqh	r4, [r0], -r8
a3f822a8:	00004bbc 	streqh	r4, [r0], -ip
a3f822ac:	00004bc0 	andeq	r4, r0, r0, asr #23
a3f822b0:	00004bc4 	andeq	r4, r0, r4, asr #23
a3f822b4:	00004bc8 	andeq	r4, r0, r8, asr #23
a3f822b8:	40100014 	andmis	r0, r0, r4, lsl r0
a3f822bc:	40100000 	andmis	r0, r0, r0
a3f822c0:	00004bcc 	andeq	r4, r0, ip, asr #23
a3f822c4:	00004bd0 	ldreqd	r4, [r0], -r0
a3f822c8:	e91baff0 	ldmdb	fp, {r4, r5, r6, r7, r8, r9, sl, fp, sp, pc}

a3f822cc <DoPrintfHelp>:
a3f822cc:	e1a0c00d 	mov	ip, sp
a3f822d0:	e92ddc30 	stmdb	sp!, {r4, r5, sl, fp, ip, lr, pc}
a3f822d4:	e24cb004 	sub	fp, ip, #4	; 0x4
a3f822d8:	e59fa084 	ldr	sl, [pc, #132]	; a3f82364 <DoPrintfHelp+0x98>
a3f822dc:	e3500001 	cmp	r0, #1	; 0x1
a3f822e0:	e08fa00a 	add	sl, pc, sl
a3f822e4:	1a000018 	bne	a3f8234c <DoPrintfHelp+0x80>
a3f822e8:	e59f3078 	ldr	r3, [pc, #120]	; a3f82368 <DoPrintfHelp+0x9c>
a3f822ec:	e79a0003 	ldr	r0, [sl, r3]
a3f822f0:	ebfffdbe 	bl	a3f819f0 <printf>
a3f822f4:	e59f3070 	ldr	r3, [pc, #112]	; a3f8236c <DoPrintfHelp+0xa0>
a3f822f8:	e79a0003 	ldr	r0, [sl, r3]
a3f822fc:	ebfffdbb 	bl	a3f819f0 <printf>
a3f82300:	e59f3068 	ldr	r3, [pc, #104]	; a3f82370 <DoPrintfHelp+0xa4>
a3f82304:	e79a0003 	ldr	r0, [sl, r3]
a3f82308:	ebfffdb8 	bl	a3f819f0 <printf>
a3f8230c:	e59f3060 	ldr	r3, [pc, #96]	; a3f82374 <DoPrintfHelp+0xa8>
a3f82310:	e79a4003 	ldr	r4, [sl, r3]
a3f82314:	e5942000 	ldr	r2, [r4]
a3f82318:	e59f5058 	ldr	r5, [pc, #88]	; a3f82378 <DoPrintfHelp+0xac>
a3f8231c:	e3520000 	cmp	r2, #0	; 0x0
a3f82320:	0a000006 	beq	a3f82340 <DoPrintfHelp+0x74>
a3f82324:	e5940010 	ldr	r0, [r4, #16]
a3f82328:	e3500000 	cmp	r0, #0	; 0x0
a3f8232c:	0a000000 	beq	a3f82334 <DoPrintfHelp+0x68>
a3f82330:	ebfffdae 	bl	a3f819f0 <printf>
a3f82334:	e5b43014 	ldr	r3, [r4, #20]!
a3f82338:	e3530000 	cmp	r3, #0	; 0x0
a3f8233c:	1afffff8 	bne	a3f82324 <DoPrintfHelp+0x58>
a3f82340:	e79a0005 	ldr	r0, [sl, r5]
a3f82344:	ebfffda9 	bl	a3f819f0 <printf>
a3f82348:	ea000003 	b	a3f8235c <DoPrintfHelp+0x90>
a3f8234c:	e59f3028 	ldr	r3, [pc, #40]	; a3f8237c <DoPrintfHelp+0xb0>
a3f82350:	e5911000 	ldr	r1, [r1]
a3f82354:	e79a0003 	ldr	r0, [sl, r3]
a3f82358:	ebfffda4 	bl	a3f819f0 <printf>
a3f8235c:	e3a00001 	mov	r0, #1	; 0x1
a3f82360:	e91bac30 	ldmdb	fp, {r4, r5, sl, fp, sp, pc}
a3f82364:	ffffdd18 	swinv	0x00ffdd18
a3f82368:	00004bd4 	ldreqd	r4, [r0], -r4
a3f8236c:	00004bd8 	ldreqd	r4, [r0], -r8
a3f82370:	00004bdc 	ldreqd	r4, [r0], -ip
a3f82374:	00004ba8 	andeq	r4, r0, r8, lsr #23
a3f82378:	00004bbc 	streqh	r4, [r0], -ip
a3f8237c:	00004bc4 	andeq	r4, r0, r4, asr #23

a3f82380 <TxPacket>:
a3f82380:	e1a0c00d 	mov	ip, sp
a3f82384:	e92dd800 	stmdb	sp!, {fp, ip, lr, pc}
a3f82388:	e24cb004 	sub	fp, ip, #4	; 0x4
a3f8238c:	eb0001cd 	bl	a3f82ac8 <EthTx>
a3f82390:	e91ba800 	ldmdb	fp, {fp, sp, pc}

a3f82394 <RxPacket>:
a3f82394:	e1a0c00d 	mov	ip, sp
a3f82398:	e92dd800 	stmdb	sp!, {fp, ip, lr, pc}
a3f8239c:	e24cb004 	sub	fp, ip, #4	; 0x4
a3f823a0:	eb0001f1 	bl	a3f82b6c <EthRx>
a3f823a4:	e91ba800 	ldmdb	fp, {fp, sp, pc}

a3f823a8 <NetInit>:
a3f823a8:	e1a0c00d 	mov	ip, sp
a3f823ac:	e92dd800 	stmdb	sp!, {fp, ip, lr, pc}
a3f823b0:	e24cb004 	sub	fp, ip, #4	; 0x4
a3f823b4:	eb000223 	bl	a3f82c48 <EthInit>
a3f823b8:	e91ba800 	ldmdb	fp, {fp, sp, pc}

a3f823bc <RxPacketHandle>:
a3f823bc:	e1a0c00d 	mov	ip, sp
a3f823c0:	e92ddff0 	stmdb	sp!, {r4, r5, r6, r7, r8, r9, sl, fp, ip, lr, pc}
a3f823c4:	e24cb004 	sub	fp, ip, #4	; 0x4
a3f823c8:	e1a07000 	mov	r7, r0
a3f823cc:	e287400e 	add	r4, r7, #14	; 0xe
a3f823d0:	e2875022 	add	r5, r7, #34	; 0x22
a3f823d4:	e59fa38c 	ldr	sl, [pc, #908]	; a3f82768 <RxPacketHandle+0x3ac>
a3f823d8:	e24dd008 	sub	sp, sp, #8	; 0x8
a3f823dc:	e1d720bc 	ldrh	r2, [r7, #12]
a3f823e0:	e08fa00a 	add	sl, pc, sl
a3f823e4:	e1a03422 	mov	r3, r2, lsr #8
a3f823e8:	e1a03803 	mov	r3, r3, lsl #16
a3f823ec:	e1833c02 	orr	r3, r3, r2, lsl #24
a3f823f0:	e1a02823 	mov	r2, r3, lsr #16
a3f823f4:	e3520b02 	cmp	r2, #2048	; 0x800
a3f823f8:	0a000055 	beq	a3f82554 <RxPacketHandle+0x198>
a3f823fc:	e59f3368 	ldr	r3, [pc, #872]	; a3f8276c <RxPacketHandle+0x3b0>
a3f82400:	e1520003 	cmp	r2, r3
a3f82404:	1a0000d6 	bne	a3f82764 <RxPacketHandle+0x3a8>
a3f82408:	e351001b 	cmp	r1, #27	; 0x1b
a3f8240c:	da0000d4 	ble	a3f82764 <RxPacketHandle+0x3a8>
a3f82410:	e1d430b6 	ldrh	r3, [r4, #6]
a3f82414:	e5d42006 	ldrb	r2, [r4, #6]
a3f82418:	e1a03423 	mov	r3, r3, lsr #8
a3f8241c:	e1833402 	orr	r3, r3, r2, lsl #8
a3f82420:	e3530001 	cmp	r3, #1	; 0x1
a3f82424:	1a0000ce 	bne	a3f82764 <RxPacketHandle+0x3a8>
a3f82428:	e1d730be 	ldrh	r3, [r7, #14]
a3f8242c:	e5d7200e 	ldrb	r2, [r7, #14]
a3f82430:	e1a03423 	mov	r3, r3, lsr #8
a3f82434:	e1833402 	orr	r3, r3, r2, lsl #8
a3f82438:	e3530001 	cmp	r3, #1	; 0x1
a3f8243c:	1a0000c8 	bne	a3f82764 <RxPacketHandle+0x3a8>
a3f82440:	e1d430b2 	ldrh	r3, [r4, #2]
a3f82444:	e5d42002 	ldrb	r2, [r4, #2]
a3f82448:	e1a03423 	mov	r3, r3, lsr #8
a3f8244c:	e1833402 	orr	r3, r3, r2, lsl #8
a3f82450:	e3530b02 	cmp	r3, #2048	; 0x800
a3f82454:	1a0000c2 	bne	a3f82764 <RxPacketHandle+0x3a8>
a3f82458:	e5d48004 	ldrb	r8, [r4, #4]
a3f8245c:	e3580006 	cmp	r8, #6	; 0x6
a3f82460:	1a0000bf 	bne	a3f82764 <RxPacketHandle+0x3a8>
a3f82464:	e5d49005 	ldrb	r9, [r4, #5]
a3f82468:	e3590004 	cmp	r9, #4	; 0x4
a3f8246c:	1a0000bc 	bne	a3f82764 <RxPacketHandle+0x3a8>
a3f82470:	e59f32f8 	ldr	r3, [pc, #760]	; a3f82770 <RxPacketHandle+0x3b4>
a3f82474:	e79a3003 	ldr	r3, [sl, r3]
a3f82478:	e50b302c 	str	r3, [fp, -#44]
a3f8247c:	e5932000 	ldr	r2, [r3]
a3f82480:	e3520000 	cmp	r2, #0	; 0x0
a3f82484:	0a0000b6 	beq	a3f82764 <RxPacketHandle+0x3a8>
a3f82488:	e2876026 	add	r6, r7, #38	; 0x26
a3f8248c:	e1a00006 	mov	r0, r6
a3f82490:	e1a01003 	mov	r1, r3
a3f82494:	e1a02009 	mov	r2, r9
a3f82498:	ebfffc0f 	bl	a3f814dc <MemCmp>
a3f8249c:	e3500000 	cmp	r0, #0	; 0x0
a3f824a0:	1a0000af 	bne	a3f82764 <RxPacketHandle+0x3a8>
a3f824a4:	e1a00007 	mov	r0, r7
a3f824a8:	e2874006 	add	r4, r7, #6	; 0x6
a3f824ac:	e1a01004 	mov	r1, r4
a3f824b0:	e1a02008 	mov	r2, r8
a3f824b4:	ebfffbf8 	bl	a3f8149c <MemCpy>
a3f824b8:	e59f32b4 	ldr	r3, [pc, #692]	; a3f82774 <RxPacketHandle+0x3b8>
a3f824bc:	e1a00004 	mov	r0, r4
a3f824c0:	e79a3003 	ldr	r3, [sl, r3]
a3f824c4:	e1a02008 	mov	r2, r8
a3f824c8:	e1a01003 	mov	r1, r3
a3f824cc:	e50b3030 	str	r3, [fp, -#48]
a3f824d0:	ebfffbf1 	bl	a3f8149c <MemCpy>
a3f824d4:	e3a03c01 	mov	r3, #256	; 0x100
a3f824d8:	e1c730be 	strh	r3, [r7, #14]
a3f824dc:	e3a03008 	mov	r3, #8	; 0x8
a3f824e0:	e1c731b0 	strh	r3, [r7, #16]
a3f824e4:	e3a03c02 	mov	r3, #512	; 0x200
a3f824e8:	e2870020 	add	r0, r7, #32	; 0x20
a3f824ec:	e2875016 	add	r5, r7, #22	; 0x16
a3f824f0:	e1a01005 	mov	r1, r5
a3f824f4:	e1c731b4 	strh	r3, [r7, #20]
a3f824f8:	e59f3278 	ldr	r3, [pc, #632]	; a3f82778 <RxPacketHandle+0x3bc>
a3f824fc:	e1a02008 	mov	r2, r8
a3f82500:	e5c78012 	strb	r8, [r7, #18]
a3f82504:	e5c79013 	strb	r9, [r7, #19]
a3f82508:	e1c730bc 	strh	r3, [r7, #12]
a3f8250c:	ebfffbe2 	bl	a3f8149c <MemCpy>
a3f82510:	e1a00006 	mov	r0, r6
a3f82514:	e287401c 	add	r4, r7, #28	; 0x1c
a3f82518:	e1a01004 	mov	r1, r4
a3f8251c:	e1a02009 	mov	r2, r9
a3f82520:	ebfffbdd 	bl	a3f8149c <MemCpy>
a3f82524:	e1a00005 	mov	r0, r5
a3f82528:	e51b1030 	ldr	r1, [fp, -#48]
a3f8252c:	e1a02008 	mov	r2, r8
a3f82530:	ebfffbd9 	bl	a3f8149c <MemCpy>
a3f82534:	e1a00004 	mov	r0, r4
a3f82538:	e51b102c 	ldr	r1, [fp, -#44]
a3f8253c:	e1a02009 	mov	r2, r9
a3f82540:	ebfffbd5 	bl	a3f8149c <MemCpy>
a3f82544:	e1a00007 	mov	r0, r7
a3f82548:	e3a0102a 	mov	r1, #42	; 0x2a
a3f8254c:	eb00015d 	bl	a3f82ac8 <EthTx>
a3f82550:	e91baff0 	ldmdb	fp, {r4, r5, r6, r7, r8, r9, sl, fp, sp, pc}
a3f82554:	e3510029 	cmp	r1, #41	; 0x29
a3f82558:	da000081 	ble	a3f82764 <RxPacketHandle+0x3a8>
a3f8255c:	e1d430b2 	ldrh	r3, [r4, #2]
a3f82560:	e5d42002 	ldrb	r2, [r4, #2]
a3f82564:	e1a03803 	mov	r3, r3, lsl #16
a3f82568:	e1a03c43 	mov	r3, r3, asr #24
a3f8256c:	e1833402 	orr	r3, r3, r2, lsl #8
a3f82570:	e283300e 	add	r3, r3, #14	; 0xe
a3f82574:	e1510003 	cmp	r1, r3
a3f82578:	ba000079 	blt	a3f82764 <RxPacketHandle+0x3a8>
a3f8257c:	e5d7300e 	ldrb	r3, [r7, #14]
a3f82580:	e20330f0 	and	r3, r3, #240	; 0xf0
a3f82584:	e3530040 	cmp	r3, #64	; 0x40
a3f82588:	1a000075 	bne	a3f82764 <RxPacketHandle+0x3a8>
a3f8258c:	e59f31e8 	ldr	r3, [pc, #488]	; a3f8277c <RxPacketHandle+0x3c0>
a3f82590:	e1d420f6 	ldrsh	r2, [r4, #6]
a3f82594:	e0023003 	and	r3, r2, r3
a3f82598:	e3530000 	cmp	r3, #0	; 0x0
a3f8259c:	1a000070 	bne	a3f82764 <RxPacketHandle+0x3a8>
a3f825a0:	e1a00004 	mov	r0, r4
a3f825a4:	e3a0100a 	mov	r1, #10	; 0xa
a3f825a8:	eb00007b 	bl	a3f8279c <IPChksumOK>
a3f825ac:	e3500000 	cmp	r0, #0	; 0x0
a3f825b0:	0a00006b 	beq	a3f82764 <RxPacketHandle+0x3a8>
a3f825b4:	e59f31b4 	ldr	r3, [pc, #436]	; a3f82770 <RxPacketHandle+0x3b4>
a3f825b8:	e79a1003 	ldr	r1, [sl, r3]
a3f825bc:	e5912000 	ldr	r2, [r1]
a3f825c0:	e3520000 	cmp	r2, #0	; 0x0
a3f825c4:	0a000004 	beq	a3f825dc <RxPacketHandle+0x220>
a3f825c8:	e287001e 	add	r0, r7, #30	; 0x1e
a3f825cc:	e3a02004 	mov	r2, #4	; 0x4
a3f825d0:	ebfffbc1 	bl	a3f814dc <MemCmp>
a3f825d4:	e3500000 	cmp	r0, #0	; 0x0
a3f825d8:	1a000061 	bne	a3f82764 <RxPacketHandle+0x3a8>
a3f825dc:	e5d43009 	ldrb	r3, [r4, #9]
a3f825e0:	e3530011 	cmp	r3, #17	; 0x11
a3f825e4:	1a00005e 	bne	a3f82764 <RxPacketHandle+0x3a8>
a3f825e8:	e59f3190 	ldr	r3, [pc, #400]	; a3f82780 <RxPacketHandle+0x3c4>
a3f825ec:	e79a2003 	ldr	r2, [sl, r3]
a3f825f0:	e1d230f0 	ldrsh	r3, [r2]
a3f825f4:	e3530044 	cmp	r3, #68	; 0x44
a3f825f8:	0a000002 	beq	a3f82608 <RxPacketHandle+0x24c>
a3f825fc:	e3530045 	cmp	r3, #69	; 0x45
a3f82600:	0a000023 	beq	a3f82694 <RxPacketHandle+0x2d8>
a3f82604:	e91baff0 	ldmdb	fp, {r4, r5, r6, r7, r8, r9, sl, fp, sp, pc}
a3f82608:	e59f2174 	ldr	r2, [pc, #372]	; a3f82784 <RxPacketHandle+0x3c8>
a3f8260c:	e79a1002 	ldr	r1, [sl, r2]
a3f82610:	e1d702b2 	ldrh	r0, [r7, #34]
a3f82614:	e1d130b0 	ldrh	r3, [r1]
a3f82618:	e5d12000 	ldrb	r2, [r1]
a3f8261c:	e1a03423 	mov	r3, r3, lsr #8
a3f82620:	e1833402 	orr	r3, r3, r2, lsl #8
a3f82624:	e1500003 	cmp	r0, r3
a3f82628:	1a00004d 	bne	a3f82764 <RxPacketHandle+0x3a8>
a3f8262c:	e59f2154 	ldr	r2, [pc, #340]	; a3f82788 <RxPacketHandle+0x3cc>
a3f82630:	e79a1002 	ldr	r1, [sl, r2]
a3f82634:	e1d500b2 	ldrh	r0, [r5, #2]
a3f82638:	e1d130b0 	ldrh	r3, [r1]
a3f8263c:	e5d12000 	ldrb	r2, [r1]
a3f82640:	e1a03423 	mov	r3, r3, lsr #8
a3f82644:	e1833402 	orr	r3, r3, r2, lsl #8
a3f82648:	e1500003 	cmp	r0, r3
a3f8264c:	1a000044 	bne	a3f82764 <RxPacketHandle+0x3a8>
a3f82650:	e1d510b4 	ldrh	r1, [r5, #4]
a3f82654:	e287002a 	add	r0, r7, #42	; 0x2a
a3f82658:	e20130ff 	and	r3, r1, #255	; 0xff
a3f8265c:	e1a01421 	mov	r1, r1, lsr #8
a3f82660:	e1811403 	orr	r1, r1, r3, lsl #8
a3f82664:	e2411008 	sub	r1, r1, #8	; 0x8
a3f82668:	e1a01801 	mov	r1, r1, lsl #16
a3f8266c:	e1a01841 	mov	r1, r1, asr #16
a3f82670:	ebfff7da 	bl	a3f805e0 <BootpRx>
a3f82674:	e3500001 	cmp	r0, #1	; 0x1
a3f82678:	1a000039 	bne	a3f82764 <RxPacketHandle+0x3a8>
a3f8267c:	e59f3108 	ldr	r3, [pc, #264]	; a3f8278c <RxPacketHandle+0x3d0>
a3f82680:	e2871006 	add	r1, r7, #6	; 0x6
a3f82684:	e79a0003 	ldr	r0, [sl, r3]
a3f82688:	e3a02006 	mov	r2, #6	; 0x6
a3f8268c:	ebfffb82 	bl	a3f8149c <MemCpy>
a3f82690:	e91baff0 	ldmdb	fp, {r4, r5, r6, r7, r8, r9, sl, fp, sp, pc}
a3f82694:	e59f00f4 	ldr	r0, [pc, #244]	; a3f82790 <RxPacketHandle+0x3d4>
a3f82698:	e79a2000 	ldr	r2, [sl, r0]
a3f8269c:	e1d7c2b2 	ldrh	ip, [r7, #34]
a3f826a0:	e1d230b0 	ldrh	r3, [r2]
a3f826a4:	e5d21000 	ldrb	r1, [r2]
a3f826a8:	e1a03423 	mov	r3, r3, lsr #8
a3f826ac:	e1833401 	orr	r3, r3, r1, lsl #8
a3f826b0:	e15c0003 	cmp	ip, r3
a3f826b4:	0a000009 	beq	a3f826e0 <RxPacketHandle+0x324>
a3f826b8:	e59f30d4 	ldr	r3, [pc, #212]	; a3f82794 <RxPacketHandle+0x3d8>
a3f826bc:	e79a2003 	ldr	r2, [sl, r3]
a3f826c0:	e1d220b0 	ldrh	r2, [r2]
a3f826c4:	e1b03802 	movs	r3, r2, lsl #16
a3f826c8:	0a000004 	beq	a3f826e0 <RxPacketHandle+0x324>
a3f826cc:	e20220ff 	and	r2, r2, #255	; 0xff
a3f826d0:	e1a03c23 	mov	r3, r3, lsr #24
a3f826d4:	e1833402 	orr	r3, r3, r2, lsl #8
a3f826d8:	e15c0003 	cmp	ip, r3
a3f826dc:	1a000020 	bne	a3f82764 <RxPacketHandle+0x3a8>
a3f826e0:	e79a3000 	ldr	r3, [sl, r0]
a3f826e4:	e1d500b2 	ldrh	r0, [r5, #2]
a3f826e8:	e1d320b0 	ldrh	r2, [r3]
a3f826ec:	e5d31000 	ldrb	r1, [r3]
a3f826f0:	e1a02422 	mov	r2, r2, lsr #8
a3f826f4:	e1822401 	orr	r2, r2, r1, lsl #8
a3f826f8:	e1500002 	cmp	r0, r2
a3f826fc:	0a000007 	beq	a3f82720 <RxPacketHandle+0x364>
a3f82700:	e59f2090 	ldr	r2, [pc, #144]	; a3f82798 <RxPacketHandle+0x3dc>
a3f82704:	e79a1002 	ldr	r1, [sl, r2]
a3f82708:	e1d130b0 	ldrh	r3, [r1]
a3f8270c:	e5d12000 	ldrb	r2, [r1]
a3f82710:	e1a03423 	mov	r3, r3, lsr #8
a3f82714:	e1833402 	orr	r3, r3, r2, lsl #8
a3f82718:	e1500003 	cmp	r0, r3
a3f8271c:	1a000010 	bne	a3f82764 <RxPacketHandle+0x3a8>
a3f82720:	e59f306c 	ldr	r3, [pc, #108]	; a3f82794 <RxPacketHandle+0x3d8>
a3f82724:	e79a1003 	ldr	r1, [sl, r3]
a3f82728:	e1d120b0 	ldrh	r2, [r1]
a3f8272c:	e3520000 	cmp	r2, #0	; 0x0
a3f82730:	1a000004 	bne	a3f82748 <RxPacketHandle+0x38c>
a3f82734:	e1d530b0 	ldrh	r3, [r5]
a3f82738:	e20320ff 	and	r2, r3, #255	; 0xff
a3f8273c:	e1a03423 	mov	r3, r3, lsr #8
a3f82740:	e1833402 	orr	r3, r3, r2, lsl #8
a3f82744:	e1c130b0 	strh	r3, [r1]
a3f82748:	e287002a 	add	r0, r7, #42	; 0x2a
a3f8274c:	e1d510b4 	ldrh	r1, [r5, #4]
a3f82750:	e5d53004 	ldrb	r3, [r5, #4]
a3f82754:	e1a01421 	mov	r1, r1, lsr #8
a3f82758:	e1811403 	orr	r1, r1, r3, lsl #8
a3f8275c:	e2411008 	sub	r1, r1, #8	; 0x8
a3f82760:	eb00033a 	bl	a3f83450 <TftpRx>
a3f82764:	e91baff0 	ldmdb	fp, {r4, r5, r6, r7, r8, r9, sl, fp, sp, pc}
a3f82768:	ffffdc18 	swinv	0x00ffdc18
a3f8276c:	00000806 	andeq	r0, r0, r6, lsl #16
a3f82770:	00004ae0 	andeq	r4, r0, r0, ror #21
a3f82774:	00004aac 	andeq	r4, r0, ip, lsr #21
a3f82778:	00000608 	andeq	r0, r0, r8, lsl #12
a3f8277c:	0000ff1f 	andeq	pc, r0, pc, lsl pc
a3f82780:	00004a8c 	andeq	r4, r0, ip, lsl #21
a3f82784:	00004a94 	muleq	r0, r4, sl
a3f82788:	00004a98 	muleq	r0, r8, sl
a3f8278c:	00004acc 	andeq	r4, r0, ip, asr #21
a3f82790:	00004be0 	andeq	r4, r0, r0, ror #23
a3f82794:	00004be4 	andeq	r4, r0, r4, ror #23
a3f82798:	00004be8 	andeq	r4, r0, r8, ror #23

a3f8279c <IPChksumOK>:
a3f8279c:	e1a0c00d 	mov	ip, sp
a3f827a0:	e92dd800 	stmdb	sp!, {fp, ip, lr, pc}
a3f827a4:	e24cb004 	sub	fp, ip, #4	; 0x4
a3f827a8:	eb000007 	bl	a3f827cc <IPChksum>
a3f827ac:	e59f3014 	ldr	r3, [pc, #20]	; a3f827c8 <IPChksumOK+0x2c>
a3f827b0:	e2800001 	add	r0, r0, #1	; 0x1
a3f827b4:	e0003003 	and	r3, r0, r3
a3f827b8:	e3530000 	cmp	r3, #0	; 0x0
a3f827bc:	13a00000 	movne	r0, #0	; 0x0
a3f827c0:	03a00001 	moveq	r0, #1	; 0x1
a3f827c4:	e91ba800 	ldmdb	fp, {fp, sp, pc}
a3f827c8:	0000fffe 	streqd	pc, [r0], -lr

a3f827cc <IPChksum>:
a3f827cc:	e3a0c000 	mov	ip, #0	; 0x0
a3f827d0:	e1a03001 	mov	r3, r1
a3f827d4:	e2411001 	sub	r1, r1, #1	; 0x1
a3f827d8:	e153000c 	cmp	r3, ip
a3f827dc:	da000005 	ble	a3f827f8 <IPChksum+0x2c>
a3f827e0:	e1a02001 	mov	r2, r1
a3f827e4:	e2411001 	sub	r1, r1, #1	; 0x1
a3f827e8:	e0d030b2 	ldrh	r3, [r0], #2
a3f827ec:	e3520000 	cmp	r2, #0	; 0x0
a3f827f0:	e08cc003 	add	ip, ip, r3
a3f827f4:	cafffff9 	bgt	a3f827e0 <IPChksum+0x14>
a3f827f8:	e59f0014 	ldr	r0, [pc, #20]	; a3f82814 <IPChksum+0x48>
a3f827fc:	e00c3000 	and	r3, ip, r0
a3f82800:	e083c82c 	add	ip, r3, ip, lsr #16
a3f82804:	e00c2000 	and	r2, ip, r0
a3f82808:	e082c82c 	add	ip, r2, ip, lsr #16
a3f8280c:	e00c0000 	and	r0, ip, r0
a3f82810:	e1a0f00e 	mov	pc, lr
a3f82814:	0000ffff 	streqd	pc, [r0], -pc

a3f82818 <SetEtherHeader>:
a3f82818:	e1a0c00d 	mov	ip, sp
a3f8281c:	e92ddc30 	stmdb	sp!, {r4, r5, sl, fp, ip, lr, pc}
a3f82820:	e24cb004 	sub	fp, ip, #4	; 0x4
a3f82824:	e1a05000 	mov	r5, r0
a3f82828:	e1a04802 	mov	r4, r2, lsl #16
a3f8282c:	e59fa034 	ldr	sl, [pc, #52]	; a3f82868 <SetEtherHeader+0x50>
a3f82830:	e3a02006 	mov	r2, #6	; 0x6
a3f82834:	e08fa00a 	add	sl, pc, sl
a3f82838:	ebfffb17 	bl	a3f8149c <MemCpy>
a3f8283c:	e59f3028 	ldr	r3, [pc, #40]	; a3f8286c <SetEtherHeader+0x54>
a3f82840:	e2850006 	add	r0, r5, #6	; 0x6
a3f82844:	e79a1003 	ldr	r1, [sl, r3]
a3f82848:	e3a02006 	mov	r2, #6	; 0x6
a3f8284c:	ebfffb12 	bl	a3f8149c <MemCpy>
a3f82850:	e1a03824 	mov	r3, r4, lsr #16
a3f82854:	e20330ff 	and	r3, r3, #255	; 0xff
a3f82858:	e1a04c24 	mov	r4, r4, lsr #24
a3f8285c:	e1844403 	orr	r4, r4, r3, lsl #8
a3f82860:	e1c540bc 	strh	r4, [r5, #12]
a3f82864:	e91bac30 	ldmdb	fp, {r4, r5, sl, fp, sp, pc}
a3f82868:	ffffd7c4 	swinv	0x00ffd7c4
a3f8286c:	00004aac 	andeq	r4, r0, ip, lsr #21

a3f82870 <SetIPHeader>:
a3f82870:	e1a0c00d 	mov	ip, sp
a3f82874:	e92ddc70 	stmdb	sp!, {r4, r5, r6, sl, fp, ip, lr, pc}
a3f82878:	e24cb004 	sub	fp, ip, #4	; 0x4
a3f8287c:	e1a06000 	mov	r6, r0
a3f82880:	e1a03803 	mov	r3, r3, lsl #16
a3f82884:	e1a0c823 	mov	ip, r3, lsr #16
a3f82888:	e59fa0c0 	ldr	sl, [pc, #192]	; a3f82950 <SetIPHeader+0xe0>
a3f8288c:	e3130801 	tst	r3, #65536	; 0x10000
a3f82890:	e08fa00a 	add	sl, pc, sl
a3f82894:	e24dd008 	sub	sp, sp, #8	; 0x8
a3f82898:	e50b1020 	str	r1, [fp, -#32]
a3f8289c:	e50b2024 	str	r2, [fp, -#36]
a3f828a0:	0a000002 	beq	a3f828b0 <SetIPHeader+0x40>
a3f828a4:	e08c2006 	add	r2, ip, r6
a3f828a8:	e3a03000 	mov	r3, #0	; 0x0
a3f828ac:	e5c23014 	strb	r3, [r2, #20]
a3f828b0:	e286000c 	add	r0, r6, #12	; 0xc
a3f828b4:	e24b1020 	sub	r1, fp, #32	; 0x20
a3f828b8:	e3a03045 	mov	r3, #69	; 0x45
a3f828bc:	e3a05000 	mov	r5, #0	; 0x0
a3f828c0:	e5c63000 	strb	r3, [r6]
a3f828c4:	e28c3014 	add	r3, ip, #20	; 0x14
a3f828c8:	e203c0ff 	and	ip, r3, #255	; 0xff
a3f828cc:	e59f2080 	ldr	r2, [pc, #128]	; a3f82954 <SetIPHeader+0xe4>
a3f828d0:	e1a03443 	mov	r3, r3, asr #8
a3f828d4:	e79a4002 	ldr	r4, [sl, r2]
a3f828d8:	e183340c 	orr	r3, r3, ip, lsl #8
a3f828dc:	e5c65001 	strb	r5, [r6, #1]
a3f828e0:	e1c630b2 	strh	r3, [r6, #2]
a3f828e4:	e1d4e0b0 	ldrh	lr, [r4]
a3f828e8:	e3a02004 	mov	r2, #4	; 0x4
a3f828ec:	e28e3001 	add	r3, lr, #1	; 0x1
a3f828f0:	e283c001 	add	ip, r3, #1	; 0x1
a3f828f4:	e20ee0ff 	and	lr, lr, #255	; 0xff
a3f828f8:	e1a03803 	mov	r3, r3, lsl #16
a3f828fc:	e1a03c43 	mov	r3, r3, asr #24
a3f82900:	e183340e 	orr	r3, r3, lr, lsl #8
a3f82904:	e1c4c0b0 	strh	ip, [r4]
a3f82908:	e1c630b4 	strh	r3, [r6, #4]
a3f8290c:	e3a03040 	mov	r3, #64	; 0x40
a3f82910:	e3a0c011 	mov	ip, #17	; 0x11
a3f82914:	e1c650b6 	strh	r5, [r6, #6]
a3f82918:	e5c63008 	strb	r3, [r6, #8]
a3f8291c:	e5c6c009 	strb	ip, [r6, #9]
a3f82920:	e1c650ba 	strh	r5, [r6, #10]
a3f82924:	ebfffadc 	bl	a3f8149c <MemCpy>
a3f82928:	e2860010 	add	r0, r6, #16	; 0x10
a3f8292c:	e24b1024 	sub	r1, fp, #36	; 0x24
a3f82930:	e3a02004 	mov	r2, #4	; 0x4
a3f82934:	ebfffad8 	bl	a3f8149c <MemCpy>
a3f82938:	e1a00006 	mov	r0, r6
a3f8293c:	e3a0100a 	mov	r1, #10	; 0xa
a3f82940:	ebffffa1 	bl	a3f827cc <IPChksum>
a3f82944:	e1e00000 	mvn	r0, r0
a3f82948:	e1c600ba 	strh	r0, [r6, #10]
a3f8294c:	e91bac70 	ldmdb	fp, {r4, r5, r6, sl, fp, sp, pc}
a3f82950:	ffffd768 	swinv	0x00ffd768
a3f82954:	00004bec 	andeq	r4, r0, ip, ror #23

a3f82958 <SetUdpHeader>:
a3f82958:	e1a01801 	mov	r1, r1, lsl #16
a3f8295c:	e1a0c421 	mov	ip, r1, lsr #8
a3f82960:	e20cccff 	and	ip, ip, #65280	; 0xff00
a3f82964:	e18ccc21 	orr	ip, ip, r1, lsr #24
a3f82968:	e1a02802 	mov	r2, r2, lsl #16
a3f8296c:	e1a01422 	mov	r1, r2, lsr #8
a3f82970:	e2011cff 	and	r1, r1, #65280	; 0xff00
a3f82974:	e1811c22 	orr	r1, r1, r2, lsr #24
a3f82978:	e1a03803 	mov	r3, r3, lsl #16
a3f8297c:	e1a03823 	mov	r3, r3, lsr #16
a3f82980:	e2833008 	add	r3, r3, #8	; 0x8
a3f82984:	e20320ff 	and	r2, r3, #255	; 0xff
a3f82988:	e1a03443 	mov	r3, r3, asr #8
a3f8298c:	e1833402 	orr	r3, r3, r2, lsl #8
a3f82990:	e1c0c0b2 	strh	ip, [r0, #2]
a3f82994:	e1c010b0 	strh	r1, [r0]
a3f82998:	e1c030b4 	strh	r3, [r0, #4]
a3f8299c:	e3a03000 	mov	r3, #0	; 0x0
a3f829a0:	e1c030b6 	strh	r3, [r0, #6]
a3f829a4:	e1a0f00e 	mov	pc, lr

a3f829a8 <PrintIPAddr>:
a3f829a8:	e1a0c00d 	mov	ip, sp
a3f829ac:	e92ddc00 	stmdb	sp!, {sl, fp, ip, lr, pc}
a3f829b0:	e24cb004 	sub	fp, ip, #4	; 0x4
a3f829b4:	e1a01000 	mov	r1, r0
a3f829b8:	e2013cff 	and	r3, r1, #65280	; 0xff00
a3f829bc:	e1a03403 	mov	r3, r3, lsl #8
a3f829c0:	e1833c01 	orr	r3, r3, r1, lsl #24
a3f829c4:	e20128ff 	and	r2, r1, #16711680	; 0xff0000
a3f829c8:	e1833422 	orr	r3, r3, r2, lsr #8
a3f829cc:	e1831c21 	orr	r1, r3, r1, lsr #24
a3f829d0:	e20130ff 	and	r3, r1, #255	; 0xff
a3f829d4:	e1a02821 	mov	r2, r1, lsr #16
a3f829d8:	e20220ff 	and	r2, r2, #255	; 0xff
a3f829dc:	e59fa024 	ldr	sl, [pc, #36]	; a3f82a08 <PrintIPAddr+0x60>
a3f829e0:	e24dd004 	sub	sp, sp, #4	; 0x4
a3f829e4:	e58d3000 	str	r3, [sp]
a3f829e8:	e59f301c 	ldr	r3, [pc, #28]	; a3f82a0c <PrintIPAddr+0x64>
a3f829ec:	e08fa00a 	add	sl, pc, sl
a3f829f0:	e79a0003 	ldr	r0, [sl, r3]
a3f829f4:	e1a03421 	mov	r3, r1, lsr #8
a3f829f8:	e1a01c21 	mov	r1, r1, lsr #24
a3f829fc:	e20330ff 	and	r3, r3, #255	; 0xff
a3f82a00:	ebfffbfa 	bl	a3f819f0 <printf>
a3f82a04:	e91bac00 	ldmdb	fp, {sl, fp, sp, pc}
a3f82a08:	ffffd60c 	swinv	0x00ffd60c
a3f82a0c:	00004bf0 	streqd	r4, [r0], -r0

a3f82a10 <PrintEthAddr>:
a3f82a10:	e1a0c00d 	mov	ip, sp
a3f82a14:	e92ddcf0 	stmdb	sp!, {r4, r5, r6, r7, sl, fp, ip, lr, pc}
a3f82a18:	e24cb004 	sub	fp, ip, #4	; 0x4
a3f82a1c:	e1a07000 	mov	r7, r0
a3f82a20:	e3a04000 	mov	r4, #0	; 0x0
a3f82a24:	e59fa03c 	ldr	sl, [pc, #60]	; a3f82a68 <PrintEthAddr+0x58>
a3f82a28:	e59f603c 	ldr	r6, [pc, #60]	; a3f82a6c <PrintEthAddr+0x5c>
a3f82a2c:	e59f503c 	ldr	r5, [pc, #60]	; a3f82a70 <PrintEthAddr+0x60>
a3f82a30:	e08fa00a 	add	sl, pc, sl
a3f82a34:	e3540000 	cmp	r4, #0	; 0x0
a3f82a38:	0a000003 	beq	a3f82a4c <PrintEthAddr+0x3c>
a3f82a3c:	e3140001 	tst	r4, #1	; 0x1
a3f82a40:	1a000001 	bne	a3f82a4c <PrintEthAddr+0x3c>
a3f82a44:	e79a0005 	ldr	r0, [sl, r5]
a3f82a48:	ebfffbe8 	bl	a3f819f0 <printf>
a3f82a4c:	e79a0006 	ldr	r0, [sl, r6]
a3f82a50:	e7d71004 	ldrb	r1, [r7, r4]
a3f82a54:	e2844001 	add	r4, r4, #1	; 0x1
a3f82a58:	ebfffbe4 	bl	a3f819f0 <printf>
a3f82a5c:	e3540005 	cmp	r4, #5	; 0x5
a3f82a60:	dafffff3 	ble	a3f82a34 <PrintEthAddr+0x24>
a3f82a64:	e91bacf0 	ldmdb	fp, {r4, r5, r6, r7, sl, fp, sp, pc}
a3f82a68:	ffffd5c8 	swinv	0x00ffd5c8
a3f82a6c:	00004bf4 	streqd	r4, [r0], -r4
a3f82a70:	00004bf8 	streqd	r4, [r0], -r8

a3f82a74 <WriteToPPR>:
a3f82a74:	e1a00800 	mov	r0, r0, lsl #16
a3f82a78:	e1a00820 	mov	r0, r0, lsr #16
a3f82a7c:	e1a01801 	mov	r1, r1, lsl #16
a3f82a80:	e59f3010 	ldr	r3, [pc, #16]	; a3f82a98 <WriteToPPR+0x24>
a3f82a84:	e1a01821 	mov	r1, r1, lsr #16
a3f82a88:	e1c300b0 	strh	r0, [r3]
a3f82a8c:	e2833002 	add	r3, r3, #2	; 0x2
a3f82a90:	e1c310b0 	strh	r1, [r3]
a3f82a94:	e1a0f00e 	mov	pc, lr
a3f82a98:	0400030a 	streq	r0, [r0], -#778

a3f82a9c <ReadFromPPR>:
a3f82a9c:	e1a00800 	mov	r0, r0, lsl #16
a3f82aa0:	e59f3018 	ldr	r3, [pc, #24]	; a3f82ac0 <ReadFromPPR+0x24>
a3f82aa4:	e59f2018 	ldr	r2, [pc, #24]	; a3f82ac4 <ReadFromPPR+0x28>
a3f82aa8:	e1a00820 	mov	r0, r0, lsr #16
a3f82aac:	e1c300b0 	strh	r0, [r3]
a3f82ab0:	e1d200b0 	ldrh	r0, [r2]
a3f82ab4:	e1a00800 	mov	r0, r0, lsl #16
a3f82ab8:	e1a00840 	mov	r0, r0, asr #16
a3f82abc:	e1a0f00e 	mov	pc, lr
a3f82ac0:	0400030a 	streq	r0, [r0], -#778
a3f82ac4:	0400030c 	streq	r0, [r0], -#780

a3f82ac8 <EthTx>:
a3f82ac8:	e1a0c00d 	mov	ip, sp
a3f82acc:	e92ddc70 	stmdb	sp!, {r4, r5, r6, sl, fp, ip, lr, pc}
a3f82ad0:	e24cb004 	sub	fp, ip, #4	; 0x4
a3f82ad4:	e1a06000 	mov	r6, r0
a3f82ad8:	e3a00f4d 	mov	r0, #308	; 0x134
a3f82adc:	e59fa074 	ldr	sl, [pc, #116]	; a3f82b58 <EthTx+0x90>
a3f82ae0:	e1a05001 	mov	r5, r1
a3f82ae4:	e08fa00a 	add	sl, pc, sl
a3f82ae8:	ebffffeb 	bl	a3f82a9c <ReadFromPPR>
a3f82aec:	e2104080 	ands	r4, r0, #128	; 0x80
a3f82af0:	1a000004 	bne	a3f82b08 <EthTx+0x40>
a3f82af4:	e59f3060 	ldr	r3, [pc, #96]	; a3f82b5c <EthTx+0x94>
a3f82af8:	e79a0003 	ldr	r0, [sl, r3]
a3f82afc:	ebfffbbb 	bl	a3f819f0 <printf>
a3f82b00:	e1a00004 	mov	r0, r4
a3f82b04:	e91bac70 	ldmdb	fp, {r4, r5, r6, sl, fp, sp, pc}
a3f82b08:	e59f3050 	ldr	r3, [pc, #80]	; a3f82b60 <EthTx+0x98>
a3f82b0c:	e59f1050 	ldr	r1, [pc, #80]	; a3f82b64 <EthTx+0x9c>
a3f82b10:	e3a020c0 	mov	r2, #192	; 0xc0
a3f82b14:	e1c320b0 	strh	r2, [r3]
a3f82b18:	e1c150b0 	strh	r5, [r1]
a3f82b1c:	e3a00f4e 	mov	r0, #312	; 0x138
a3f82b20:	ebffffdd 	bl	a3f82a9c <ReadFromPPR>
a3f82b24:	e3100c01 	tst	r0, #256	; 0x100
a3f82b28:	0afffffb 	beq	a3f82b1c <EthTx+0x54>
a3f82b2c:	e1a00006 	mov	r0, r6
a3f82b30:	e0801005 	add	r1, r0, r5
a3f82b34:	e1500001 	cmp	r0, r1
a3f82b38:	2a000004 	bcs	a3f82b50 <EthTx+0x88>
a3f82b3c:	e59f2024 	ldr	r2, [pc, #36]	; a3f82b68 <EthTx+0xa0>
a3f82b40:	e0d030b2 	ldrh	r3, [r0], #2
a3f82b44:	e1500001 	cmp	r0, r1
a3f82b48:	e1c230b0 	strh	r3, [r2]
a3f82b4c:	3afffffb 	bcc	a3f82b40 <EthTx+0x78>
a3f82b50:	e3a00001 	mov	r0, #1	; 0x1
a3f82b54:	e91bac70 	ldmdb	fp, {r4, r5, r6, sl, fp, sp, pc}
a3f82b58:	ffffd514 	swinv	0x00ffd514
a3f82b5c:	00004bfc 	streqd	r4, [r0], -ip
a3f82b60:	04000304 	streq	r0, [r0], -#772
a3f82b64:	04000306 	streq	r0, [r0], -#774
a3f82b68:	04000300 	streq	r0, [r0], -#768

a3f82b6c <EthRx>:
a3f82b6c:	e1a0c00d 	mov	ip, sp
a3f82b70:	e92dd8f0 	stmdb	sp!, {r4, r5, r6, r7, fp, ip, lr, pc}
a3f82b74:	e59f20c4 	ldr	r2, [pc, #196]	; a3f82c40 <EthRx+0xd4>
a3f82b78:	e24cb004 	sub	fp, ip, #4	; 0x4
a3f82b7c:	e1d230b0 	ldrh	r3, [r2]
a3f82b80:	e1a07000 	mov	r7, r0
a3f82b84:	ea000027 	b	a3f82c28 <EthRx+0xbc>
a3f82b88:	e1a03802 	mov	r3, r2, lsl #16
a3f82b8c:	e3130701 	tst	r3, #262144	; 0x40000
a3f82b90:	e1a03843 	mov	r3, r3, asr #16
a3f82b94:	0a00001e 	beq	a3f82c14 <EthRx+0xa8>
a3f82b98:	e59f60a4 	ldr	r6, [pc, #164]	; a3f82c44 <EthRx+0xd8>
a3f82b9c:	e1d630b0 	ldrh	r3, [r6]
a3f82ba0:	e3130c01 	tst	r3, #256	; 0x100
a3f82ba4:	0a00001d 	beq	a3f82c20 <EthRx+0xb4>
a3f82ba8:	e1a00007 	mov	r0, r7
a3f82bac:	e1d630b0 	ldrh	r3, [r6]
a3f82bb0:	e3a01000 	mov	r1, #0	; 0x0
a3f82bb4:	e1a05003 	mov	r5, r3
a3f82bb8:	e1a02805 	mov	r2, r5, lsl #16
a3f82bbc:	e1a04842 	mov	r4, r2, asr #16
a3f82bc0:	e0842fa2 	add	r2, r4, r2, lsr #31
a3f82bc4:	e04440c2 	sub	r4, r4, r2, asr #1
a3f82bc8:	e1a04804 	mov	r4, r4, lsl #16
a3f82bcc:	e1a04824 	mov	r4, r4, lsr #16
a3f82bd0:	e3a02e26 	mov	r2, #608	; 0x260
a3f82bd4:	ebfffa38 	bl	a3f814bc <MemSet>
a3f82bd8:	e1a02007 	mov	r2, r7
a3f82bdc:	e1a04804 	mov	r4, r4, lsl #16
a3f82be0:	e1a04844 	mov	r4, r4, asr #16
a3f82be4:	e3540000 	cmp	r4, #0	; 0x0
a3f82be8:	da000004 	ble	a3f82c00 <EthRx+0x94>
a3f82bec:	e1a01006 	mov	r1, r6
a3f82bf0:	e1d130b0 	ldrh	r3, [r1]
a3f82bf4:	e2544001 	subs	r4, r4, #1	; 0x1
a3f82bf8:	e0c230b2 	strh	r3, [r2], #2
a3f82bfc:	1afffffb 	bne	a3f82bf0 <EthRx+0x84>
a3f82c00:	e1a00007 	mov	r0, r7
a3f82c04:	e1a01805 	mov	r1, r5, lsl #16
a3f82c08:	e1a01841 	mov	r1, r1, asr #16
a3f82c0c:	ebfffdea 	bl	a3f823bc <RxPacketHandle>
a3f82c10:	ea000002 	b	a3f82c20 <EthRx+0xb4>
a3f82c14:	e3130008 	tst	r3, #8	; 0x8
a3f82c18:	1a000000 	bne	a3f82c20 <EthRx+0xb4>
a3f82c1c:	e313000c 	tst	r3, #12	; 0xc
a3f82c20:	e59f2018 	ldr	r2, [pc, #24]	; a3f82c40 <EthRx+0xd4>
a3f82c24:	e1d230b0 	ldrh	r3, [r2]
a3f82c28:	e1a03803 	mov	r3, r3, lsl #16
a3f82c2c:	e1a02823 	mov	r2, r3, lsr #16
a3f82c30:	e3530000 	cmp	r3, #0	; 0x0
a3f82c34:	1affffd3 	bne	a3f82b88 <EthRx+0x1c>
a3f82c38:	e3a00001 	mov	r0, #1	; 0x1
a3f82c3c:	e91ba8f0 	ldmdb	fp, {r4, r5, r6, r7, fp, sp, pc}
a3f82c40:	04000308 	streq	r0, [r0], -#776
a3f82c44:	04000300 	streq	r0, [r0], -#768

a3f82c48 <EthInit>:
a3f82c48:	e1a0c00d 	mov	ip, sp
a3f82c4c:	e92ddc70 	stmdb	sp!, {r4, r5, r6, sl, fp, ip, lr, pc}
a3f82c50:	e24cb004 	sub	fp, ip, #4	; 0x4
a3f82c54:	e3a00301 	mov	r0, #67108864	; 0x4000000
a3f82c58:	e3a01000 	mov	r1, #0	; 0x0
a3f82c5c:	e59fa134 	ldr	sl, [pc, #308]	; a3f82d98 <EthInit+0x150>
a3f82c60:	e3a02002 	mov	r2, #2	; 0x2
a3f82c64:	e08fa00a 	add	sl, pc, sl
a3f82c68:	ebfffa13 	bl	a3f814bc <MemSet>
a3f82c6c:	e59f2128 	ldr	r2, [pc, #296]	; a3f82d9c <EthInit+0x154>
a3f82c70:	e1d230b0 	ldrh	r3, [r2]
a3f82c74:	e2033a07 	and	r3, r3, #28672	; 0x7000
a3f82c78:	e3530a03 	cmp	r3, #12288	; 0x3000
a3f82c7c:	0a000004 	beq	a3f82c94 <EthInit+0x4c>
a3f82c80:	e59f3118 	ldr	r3, [pc, #280]	; a3f82da0 <EthInit+0x158>
a3f82c84:	e79a0003 	ldr	r0, [sl, r3]
a3f82c88:	ebfffb58 	bl	a3f819f0 <printf>
a3f82c8c:	e3a00000 	mov	r0, #0	; 0x0
a3f82c90:	e91bac70 	ldmdb	fp, {r4, r5, r6, sl, fp, sp, pc}
a3f82c94:	e3a00000 	mov	r0, #0	; 0x0
a3f82c98:	ebffff7f 	bl	a3f82a9c <ReadFromPPR>
a3f82c9c:	e59f3100 	ldr	r3, [pc, #256]	; a3f82da4 <EthInit+0x15c>
a3f82ca0:	e1a00800 	mov	r0, r0, lsl #16
a3f82ca4:	e1530840 	cmp	r3, r0, asr #16
a3f82ca8:	159f30f8 	ldrne	r3, [pc, #248]	; a3f82da8 <EthInit+0x160>
a3f82cac:	1afffff4 	bne	a3f82c84 <EthInit+0x3c>
a3f82cb0:	e3a01000 	mov	r1, #0	; 0x0
a3f82cb4:	e59f00f0 	ldr	r0, [pc, #240]	; a3f82dac <EthInit+0x164>
a3f82cb8:	e3a05615 	mov	r5, #22020096	; 0x1500000
a3f82cbc:	ebffff6c 	bl	a3f82a74 <WriteToPPR>
a3f82cc0:	e3a00022 	mov	r0, #34	; 0x22
a3f82cc4:	e3a01004 	mov	r1, #4	; 0x4
a3f82cc8:	ebffff69 	bl	a3f82a74 <WriteToPPR>
a3f82ccc:	e3a00024 	mov	r0, #36	; 0x24
a3f82cd0:	e3a01003 	mov	r1, #3	; 0x3
a3f82cd4:	ebffff66 	bl	a3f82a74 <WriteToPPR>
a3f82cd8:	e59f00d0 	ldr	r0, [pc, #208]	; a3f82db0 <EthInit+0x168>
a3f82cdc:	e3a01c11 	mov	r1, #4352	; 0x1100
a3f82ce0:	ebffff63 	bl	a3f82a74 <WriteToPPR>
a3f82ce4:	e3a00f41 	mov	r0, #260	; 0x104
a3f82ce8:	e3a01c05 	mov	r1, #1280	; 0x500
a3f82cec:	ebffff60 	bl	a3f82a74 <WriteToPPR>
a3f82cf0:	e59f00bc 	ldr	r0, [pc, #188]	; a3f82db4 <EthInit+0x16c>
a3f82cf4:	e3a01d3f 	mov	r1, #4032	; 0xfc0
a3f82cf8:	ebffff5d 	bl	a3f82a74 <WriteToPPR>
a3f82cfc:	e3a00f42 	mov	r0, #264	; 0x108
a3f82d00:	e3a010c0 	mov	r1, #192	; 0xc0
a3f82d04:	ebffff5a 	bl	a3f82a74 <WriteToPPR>
a3f82d08:	e59f00a8 	ldr	r0, [pc, #168]	; a3f82db8 <EthInit+0x170>
a3f82d0c:	e3a01000 	mov	r1, #0	; 0x0
a3f82d10:	ebffff57 	bl	a3f82a74 <WriteToPPR>
a3f82d14:	e59f00a0 	ldr	r0, [pc, #160]	; a3f82dbc <EthInit+0x174>
a3f82d18:	e59f10a0 	ldr	r1, [pc, #160]	; a3f82dc0 <EthInit+0x178>
a3f82d1c:	e3a04003 	mov	r4, #3	; 0x3
a3f82d20:	ebffff53 	bl	a3f82a74 <WriteToPPR>
a3f82d24:	e3a00f46 	mov	r0, #280	; 0x118
a3f82d28:	e3a01000 	mov	r1, #0	; 0x0
a3f82d2c:	ebffff50 	bl	a3f82a74 <WriteToPPR>
a3f82d30:	e3a00f51 	mov	r0, #324	; 0x144
a3f82d34:	e3a010c0 	mov	r1, #192	; 0xc0
a3f82d38:	ebffff4d 	bl	a3f82a74 <WriteToPPR>
a3f82d3c:	e1a00845 	mov	r0, r5, asr #16
a3f82d40:	e3e01000 	mvn	r1, #0	; 0x0
a3f82d44:	ebffff4a 	bl	a3f82a74 <WriteToPPR>
a3f82d48:	e2855802 	add	r5, r5, #131072	; 0x20000
a3f82d4c:	e2544001 	subs	r4, r4, #1	; 0x1
a3f82d50:	5afffff9 	bpl	a3f82d3c <EthInit+0xf4>
a3f82d54:	e3a04000 	mov	r4, #0	; 0x0
a3f82d58:	e59f3064 	ldr	r3, [pc, #100]	; a3f82dc4 <EthInit+0x17c>
a3f82d5c:	e3a05756 	mov	r5, #22544384	; 0x1580000
a3f82d60:	e79a6003 	ldr	r6, [sl, r3]
a3f82d64:	e1a00845 	mov	r0, r5, asr #16
a3f82d68:	e2855802 	add	r5, r5, #131072	; 0x20000
a3f82d6c:	e1a03084 	mov	r3, r4, lsl #1
a3f82d70:	e19310f6 	ldrsh	r1, [r3, r6]
a3f82d74:	e2844001 	add	r4, r4, #1	; 0x1
a3f82d78:	ebffff3d 	bl	a3f82a74 <WriteToPPR>
a3f82d7c:	e3540002 	cmp	r4, #2	; 0x2
a3f82d80:	dafffff7 	ble	a3f82d64 <EthInit+0x11c>
a3f82d84:	e59f0020 	ldr	r0, [pc, #32]	; a3f82dac <EthInit+0x164>
a3f82d88:	e3a010c0 	mov	r1, #192	; 0xc0
a3f82d8c:	ebffff38 	bl	a3f82a74 <WriteToPPR>
a3f82d90:	e3a00001 	mov	r0, #1	; 0x1
a3f82d94:	e91bac70 	ldmdb	fp, {r4, r5, r6, sl, fp, sp, pc}
a3f82d98:	ffffd394 	swinv	0x00ffd394
a3f82d9c:	0400030a 	streq	r0, [r0], -#778
a3f82da0:	00004c00 	andeq	r4, r0, r0, lsl #24
a3f82da4:	0000630e 	andeq	r6, r0, lr, lsl #6
a3f82da8:	00004c04 	andeq	r4, r0, r4, lsl #24
a3f82dac:	00000112 	andeq	r0, r0, r2, lsl r1
a3f82db0:	00000102 	andeq	r0, r0, r2, lsl #2
a3f82db4:	00000106 	andeq	r0, r0, r6, lsl #2
a3f82db8:	0000010a 	andeq	r0, r0, sl, lsl #2
a3f82dbc:	00000116 	andeq	r0, r0, r6, lsl r1
a3f82dc0:	ffff9000 	swinv	0x00ff9000
a3f82dc4:	00004aac 	andeq	r4, r0, ip, lsr #21

a3f82dc8 <EthHalt>:
a3f82dc8:	e1a0f00e 	mov	pc, lr

a3f82dcc <EthRestart>:
a3f82dcc:	e1a0f00e 	mov	pc, lr

a3f82dd0 <SerialInit>:
a3f82dd0:	e92d4000 	stmdb	sp!, {lr}
a3f82dd4:	e59f1068 	ldr	r1, [pc, #104]	; a3f82e44 <SerialInit+0x74>
a3f82dd8:	e59fe068 	ldr	lr, [pc, #104]	; a3f82e48 <SerialInit+0x78>
a3f82ddc:	e5912000 	ldr	r2, [r1]
a3f82de0:	e59fc064 	ldr	ip, [pc, #100]	; a3f82e4c <SerialInit+0x7c>
a3f82de4:	e382292a 	orr	r2, r2, #688128	; 0xa8000
a3f82de8:	e5812000 	str	r2, [r1]
a3f82dec:	e59e3000 	ldr	r3, [lr]
a3f82df0:	e59f2058 	ldr	r2, [pc, #88]	; a3f82e50 <SerialInit+0x80>
a3f82df4:	e59f1058 	ldr	r1, [pc, #88]	; a3f82e54 <SerialInit+0x84>
a3f82df8:	e3833d0e 	orr	r3, r3, #896	; 0x380
a3f82dfc:	e58e3000 	str	r3, [lr]
a3f82e00:	e3a03003 	mov	r3, #3	; 0x3
a3f82e04:	e58c3000 	str	r3, [ip]
a3f82e08:	e2833004 	add	r3, r3, #4	; 0x4
a3f82e0c:	e5823000 	str	r3, [r2]
a3f82e10:	e3a02040 	mov	r2, #64	; 0x40
a3f82e14:	e5812000 	str	r2, [r1]
a3f82e18:	e59c3000 	ldr	r3, [ip]
a3f82e1c:	e2411004 	sub	r1, r1, #4	; 0x4
a3f82e20:	e3833080 	orr	r3, r3, #128	; 0x80
a3f82e24:	e58c3000 	str	r3, [ip]
a3f82e28:	e5810000 	str	r0, [r1]
a3f82e2c:	e59c2000 	ldr	r2, [ip]
a3f82e30:	e3c22080 	bic	r2, r2, #128	; 0x80
a3f82e34:	e58c2000 	str	r2, [ip]
a3f82e38:	e59f3018 	ldr	r3, [pc, #24]	; a3f82e58 <SerialInit+0x88>
a3f82e3c:	e5932000 	ldr	r2, [r3]
a3f82e40:	e8bd8000 	ldmia	sp!, {pc}
a3f82e44:	40e0005c 	rscmi	r0, r0, ip, asr r0
a3f82e48:	40e00010 	rscmi	r0, r0, r0, lsl r0
a3f82e4c:	4010000c 	andmis	r0, r0, ip
a3f82e50:	40100008 	andmis	r0, r0, r8
a3f82e54:	40100004 	andmis	r0, r0, r4
a3f82e58:	40100014 	andmis	r0, r0, r4, lsl r0

a3f82e5c <SerialOutputByte>:
a3f82e5c:	e1a0c00d 	mov	ip, sp
a3f82e60:	e92dd800 	stmdb	sp!, {fp, ip, lr, pc}
a3f82e64:	e24cb004 	sub	fp, ip, #4	; 0x4
a3f82e68:	e20000ff 	and	r0, r0, #255	; 0xff
a3f82e6c:	e59f2024 	ldr	r2, [pc, #36]	; a3f82e98 <SerialOutputByte+0x3c>
a3f82e70:	e5923000 	ldr	r3, [r2]
a3f82e74:	e3130020 	tst	r3, #32	; 0x20
a3f82e78:	0afffffc 	beq	a3f82e70 <SerialOutputByte+0x14>
a3f82e7c:	e59f3018 	ldr	r3, [pc, #24]	; a3f82e9c <SerialOutputByte+0x40>
a3f82e80:	e350000a 	cmp	r0, #10	; 0xa
a3f82e84:	e5830000 	str	r0, [r3]
a3f82e88:	1a000001 	bne	a3f82e94 <SerialOutputByte+0x38>
a3f82e8c:	e3a0000d 	mov	r0, #13	; 0xd
a3f82e90:	ebfffff1 	bl	a3f82e5c <SerialOutputByte>
a3f82e94:	e91ba800 	ldmdb	fp, {fp, sp, pc}
a3f82e98:	40100014 	andmis	r0, r0, r4, lsl r0
a3f82e9c:	40100000 	andmis	r0, r0, r0

a3f82ea0 <SerialInputByte>:
a3f82ea0:	e59f3020 	ldr	r3, [pc, #32]	; a3f82ec8 <SerialInputByte+0x28>
a3f82ea4:	e5932000 	ldr	r2, [r3]
a3f82ea8:	e1a01000 	mov	r1, r0
a3f82eac:	e2120001 	ands	r0, r2, #1	; 0x1
a3f82eb0:	01a0f00e 	moveq	pc, lr
a3f82eb4:	e2433014 	sub	r3, r3, #20	; 0x14
a3f82eb8:	e5932000 	ldr	r2, [r3]
a3f82ebc:	e3a00001 	mov	r0, #1	; 0x1
a3f82ec0:	e5c12000 	strb	r2, [r1]
a3f82ec4:	e1a0f00e 	mov	pc, lr
a3f82ec8:	40100014 	andmis	r0, r0, r4, lsl r0

a3f82ecc <DoTftp>:
a3f82ecc:	e1a0c00d 	mov	ip, sp
a3f82ed0:	e92ddc70 	stmdb	sp!, {r4, r5, r6, sl, fp, ip, lr, pc}
a3f82ed4:	e24cb004 	sub	fp, ip, #4	; 0x4
a3f82ed8:	e3510003 	cmp	r1, #3	; 0x3
a3f82edc:	e1a06000 	mov	r6, r0
a3f82ee0:	e59fa13c 	ldr	sl, [pc, #316]	; a3f83024 <DoTftp+0x158>
a3f82ee4:	e1a05002 	mov	r5, r2
a3f82ee8:	e08fa00a 	add	sl, pc, sl
a3f82eec:	0a000003 	beq	a3f82f00 <DoTftp+0x34>
a3f82ef0:	e5960008 	ldr	r0, [r6, #8]
a3f82ef4:	ebfffabd 	bl	a3f819f0 <printf>
a3f82ef8:	e3a00000 	mov	r0, #0	; 0x0
a3f82efc:	e91bac70 	ldmdb	fp, {r4, r5, r6, sl, fp, sp, pc}
a3f82f00:	e59f3120 	ldr	r3, [pc, #288]	; a3f83028 <DoTftp+0x15c>
a3f82f04:	e5950008 	ldr	r0, [r5, #8]
a3f82f08:	e79a1003 	ldr	r1, [sl, r3]
a3f82f0c:	ebfff9ab 	bl	a3f815c0 <StrCmp>
a3f82f10:	e3500000 	cmp	r0, #0	; 0x0
a3f82f14:	1a000003 	bne	a3f82f28 <DoTftp+0x5c>
a3f82f18:	e59f310c 	ldr	r3, [pc, #268]	; a3f8302c <DoTftp+0x160>
a3f82f1c:	e59f210c 	ldr	r2, [pc, #268]	; a3f83030 <DoTftp+0x164>
a3f82f20:	e79a1003 	ldr	r1, [sl, r3]
a3f82f24:	ea000029 	b	a3f82fd0 <DoTftp+0x104>
a3f82f28:	e59f3104 	ldr	r3, [pc, #260]	; a3f83034 <DoTftp+0x168>
a3f82f2c:	e5950008 	ldr	r0, [r5, #8]
a3f82f30:	e79a1003 	ldr	r1, [sl, r3]
a3f82f34:	ebfff9a1 	bl	a3f815c0 <StrCmp>
a3f82f38:	e3500000 	cmp	r0, #0	; 0x0
a3f82f3c:	1a000008 	bne	a3f82f64 <DoTftp+0x98>
a3f82f40:	e3a0320a 	mov	r3, #-1610612736	; 0xa0000000
a3f82f44:	e1a00003 	mov	r0, r3
a3f82f48:	e59f20dc 	ldr	r2, [pc, #220]	; a3f8302c <DoTftp+0x160>
a3f82f4c:	e3a010ff 	mov	r1, #255	; 0xff
a3f82f50:	e79ac002 	ldr	ip, [sl, r2]
a3f82f54:	e3a0261d 	mov	r2, #30408704	; 0x1d00000
a3f82f58:	e58c3000 	str	r3, [ip]
a3f82f5c:	ebfff956 	bl	a3f814bc <MemSet>
a3f82f60:	ea00001b 	b	a3f82fd4 <DoTftp+0x108>
a3f82f64:	e59f30cc 	ldr	r3, [pc, #204]	; a3f83038 <DoTftp+0x16c>
a3f82f68:	e5950008 	ldr	r0, [r5, #8]
a3f82f6c:	e79a1003 	ldr	r1, [sl, r3]
a3f82f70:	ebfff992 	bl	a3f815c0 <StrCmp>
a3f82f74:	e3500000 	cmp	r0, #0	; 0x0
a3f82f78:	1a000003 	bne	a3f82f8c <DoTftp+0xc0>
a3f82f7c:	e59f30a8 	ldr	r3, [pc, #168]	; a3f8302c <DoTftp+0x160>
a3f82f80:	e59f20b4 	ldr	r2, [pc, #180]	; a3f8303c <DoTftp+0x170>
a3f82f84:	e79a1003 	ldr	r1, [sl, r3]
a3f82f88:	ea000010 	b	a3f82fd0 <DoTftp+0x104>
a3f82f8c:	e59f30ac 	ldr	r3, [pc, #172]	; a3f83040 <DoTftp+0x174>
a3f82f90:	e5950008 	ldr	r0, [r5, #8]
a3f82f94:	e79a1003 	ldr	r1, [sl, r3]
a3f82f98:	ebfff988 	bl	a3f815c0 <StrCmp>
a3f82f9c:	e3500000 	cmp	r0, #0	; 0x0
a3f82fa0:	0a000007 	beq	a3f82fc4 <DoTftp+0xf8>
a3f82fa4:	e59f3080 	ldr	r3, [pc, #128]	; a3f8302c <DoTftp+0x160>
a3f82fa8:	e5950008 	ldr	r0, [r5, #8]
a3f82fac:	e79a1003 	ldr	r1, [sl, r3]
a3f82fb0:	e3a02020 	mov	r2, #32	; 0x20
a3f82fb4:	ebfff997 	bl	a3f81618 <HexToInt>
a3f82fb8:	e2504000 	subs	r4, r0, #0	; 0x0
a3f82fbc:	1a000004 	bne	a3f82fd4 <DoTftp+0x108>
a3f82fc0:	eaffffca 	b	a3f82ef0 <DoTftp+0x24>
a3f82fc4:	e59f3060 	ldr	r3, [pc, #96]	; a3f8302c <DoTftp+0x160>
a3f82fc8:	e79a1003 	ldr	r1, [sl, r3]
a3f82fcc:	e3a024a1 	mov	r2, #-1593835520	; 0xa1000000
a3f82fd0:	e5812000 	str	r2, [r1]
a3f82fd4:	e59f3068 	ldr	r3, [pc, #104]	; a3f83044 <DoTftp+0x178>
a3f82fd8:	e79a2003 	ldr	r2, [sl, r3]
a3f82fdc:	e5924000 	ldr	r4, [r2]
a3f82fe0:	e3540000 	cmp	r4, #0	; 0x0
a3f82fe4:	1a00000b 	bne	a3f83018 <DoTftp+0x14c>
a3f82fe8:	e59f3058 	ldr	r3, [pc, #88]	; a3f83048 <DoTftp+0x17c>
a3f82fec:	e79a0003 	ldr	r0, [sl, r3]
a3f82ff0:	ebfffa7e 	bl	a3f819f0 <printf>
a3f82ff4:	e1a00004 	mov	r0, r4
a3f82ff8:	e1a01000 	mov	r1, r0
a3f82ffc:	e1a02000 	mov	r2, r0
a3f83000:	ebfff4c0 	bl	a3f80308 <DoBootp>
a3f83004:	e2504000 	subs	r4, r0, #0	; 0x0
a3f83008:	1a000002 	bne	a3f83018 <DoTftp+0x14c>
a3f8300c:	e59f3038 	ldr	r3, [pc, #56]	; a3f8304c <DoTftp+0x180>
a3f83010:	e79a0003 	ldr	r0, [sl, r3]
a3f83014:	eaffffb6 	b	a3f82ef4 <DoTftp+0x28>
a3f83018:	e5950004 	ldr	r0, [r5, #4]
a3f8301c:	eb00000b 	bl	a3f83050 <TftpStart>
a3f83020:	e91bac70 	ldmdb	fp, {r4, r5, r6, sl, fp, sp, pc}
a3f83024:	ffffd110 	swinv	0x00ffd110
a3f83028:	00004c08 	andeq	r4, r0, r8, lsl #24
a3f8302c:	00004c0c 	andeq	r4, r0, ip, lsl #24
a3f83030:	a0008000 	andge	r8, r0, r0
a3f83034:	00004c10 	andeq	r4, r0, r0, lsl ip
a3f83038:	00004c14 	andeq	r4, r0, r4, lsl ip
a3f8303c:	a1ff0000 	mvnges	r0, r0
a3f83040:	00004c18 	andeq	r4, r0, r8, lsl ip
a3f83044:	00004ae0 	andeq	r4, r0, r0, ror #21
a3f83048:	00004c1c 	andeq	r4, r0, ip, lsl ip
a3f8304c:	00004c20 	andeq	r4, r0, r0, lsr #24

a3f83050 <TftpStart>:
a3f83050:	e1a0c00d 	mov	ip, sp
a3f83054:	e92ddff0 	stmdb	sp!, {r4, r5, r6, r7, r8, r9, sl, fp, ip, lr, pc}
a3f83058:	e24cb004 	sub	fp, ip, #4	; 0x4
a3f8305c:	e2505000 	subs	r5, r0, #0	; 0x0
a3f83060:	e59fa1b8 	ldr	sl, [pc, #440]	; a3f83220 <TftpStart+0x1d0>
a3f83064:	e59f31b8 	ldr	r3, [pc, #440]	; a3f83224 <TftpStart+0x1d4>
a3f83068:	e08fa00a 	add	sl, pc, sl
a3f8306c:	e79a3003 	ldr	r3, [sl, r3]
a3f83070:	e24dd008 	sub	sp, sp, #8	; 0x8
a3f83074:	e50b302c 	str	r3, [fp, -#44]
a3f83078:	0a000002 	beq	a3f83088 <TftpStart+0x38>
a3f8307c:	e5d53000 	ldrb	r3, [r5]
a3f83080:	e3530000 	cmp	r3, #0	; 0x0
a3f83084:	1a000004 	bne	a3f8309c <TftpStart+0x4c>
a3f83088:	e59f3198 	ldr	r3, [pc, #408]	; a3f83228 <TftpStart+0x1d8>
a3f8308c:	e79a0003 	ldr	r0, [sl, r3]
a3f83090:	ebfffa56 	bl	a3f819f0 <printf>
a3f83094:	e3a00000 	mov	r0, #0	; 0x0
a3f83098:	e91baff0 	ldmdb	fp, {r4, r5, r6, r7, r8, r9, sl, fp, sp, pc}
a3f8309c:	e59f3188 	ldr	r3, [pc, #392]	; a3f8322c <TftpStart+0x1dc>
a3f830a0:	e79a0003 	ldr	r0, [sl, r3]
a3f830a4:	ebfffa51 	bl	a3f819f0 <printf>
a3f830a8:	e59f3180 	ldr	r3, [pc, #384]	; a3f83230 <TftpStart+0x1e0>
a3f830ac:	e79a0003 	ldr	r0, [sl, r3]
a3f830b0:	ebfffa4e 	bl	a3f819f0 <printf>
a3f830b4:	e59f3178 	ldr	r3, [pc, #376]	; a3f83234 <TftpStart+0x1e4>
a3f830b8:	e79a2003 	ldr	r2, [sl, r3]
a3f830bc:	e5920000 	ldr	r0, [r2]
a3f830c0:	ebfffe38 	bl	a3f829a8 <PrintIPAddr>
a3f830c4:	e59f316c 	ldr	r3, [pc, #364]	; a3f83238 <TftpStart+0x1e8>
a3f830c8:	e79a4003 	ldr	r4, [sl, r3]
a3f830cc:	e1a00004 	mov	r0, r4
a3f830d0:	ebfffa46 	bl	a3f819f0 <printf>
a3f830d4:	e59f3160 	ldr	r3, [pc, #352]	; a3f8323c <TftpStart+0x1ec>
a3f830d8:	e79a0003 	ldr	r0, [sl, r3]
a3f830dc:	ebfffa43 	bl	a3f819f0 <printf>
a3f830e0:	e59f3158 	ldr	r3, [pc, #344]	; a3f83240 <TftpStart+0x1f0>
a3f830e4:	e79a2003 	ldr	r2, [sl, r3]
a3f830e8:	e5920000 	ldr	r0, [r2]
a3f830ec:	ebfffe2d 	bl	a3f829a8 <PrintIPAddr>
a3f830f0:	e1a00004 	mov	r0, r4
a3f830f4:	ebfffa3d 	bl	a3f819f0 <printf>
a3f830f8:	e59f3144 	ldr	r3, [pc, #324]	; a3f83244 <TftpStart+0x1f4>
a3f830fc:	e79a4003 	ldr	r4, [sl, r3]
a3f83100:	e1a01005 	mov	r1, r5
a3f83104:	e1a00004 	mov	r0, r4
a3f83108:	ebfff902 	bl	a3f81518 <StrCpy>
a3f8310c:	e59f3134 	ldr	r3, [pc, #308]	; a3f83248 <TftpStart+0x1f8>
a3f83110:	e79a0003 	ldr	r0, [sl, r3]
a3f83114:	e1a01004 	mov	r1, r4
a3f83118:	ebfffa34 	bl	a3f819f0 <printf>
a3f8311c:	e59f3128 	ldr	r3, [pc, #296]	; a3f8324c <TftpStart+0x1fc>
a3f83120:	e59f2128 	ldr	r2, [pc, #296]	; a3f83250 <TftpStart+0x200>
a3f83124:	e79ac003 	ldr	ip, [sl, r3]
a3f83128:	e79a0002 	ldr	r0, [sl, r2]
a3f8312c:	e59c1000 	ldr	r1, [ip]
a3f83130:	ebfffa2e 	bl	a3f819f0 <printf>
a3f83134:	e59f3118 	ldr	r3, [pc, #280]	; a3f83254 <TftpStart+0x204>
a3f83138:	e79a0003 	ldr	r0, [sl, r3]
a3f8313c:	e59f6114 	ldr	r6, [pc, #276]	; a3f83258 <TftpStart+0x208>
a3f83140:	ebfffa2a 	bl	a3f819f0 <printf>
a3f83144:	e79a3006 	ldr	r3, [sl, r6]
a3f83148:	e51b002c 	ldr	r0, [fp, -#44]
a3f8314c:	e59f4108 	ldr	r4, [pc, #264]	; a3f8325c <TftpStart+0x20c>
a3f83150:	e59f5108 	ldr	r5, [pc, #264]	; a3f83260 <TftpStart+0x210>
a3f83154:	e3a02045 	mov	r2, #69	; 0x45
a3f83158:	e1c320b0 	strh	r2, [r3]
a3f8315c:	e79a7004 	ldr	r7, [sl, r4]
a3f83160:	e79a3005 	ldr	r3, [sl, r5]
a3f83164:	e3a02001 	mov	r2, #1	; 0x1
a3f83168:	e1c720b0 	strh	r2, [r7]
a3f8316c:	e3a02000 	mov	r2, #0	; 0x0
a3f83170:	e1c320b0 	strh	r2, [r3]
a3f83174:	eb00003d 	bl	a3f83270 <TftpTx>
a3f83178:	e59f30e4 	ldr	r3, [pc, #228]	; a3f83264 <TftpStart+0x214>
a3f8317c:	e79a8003 	ldr	r8, [sl, r3]
a3f83180:	eb000133 	bl	a3f83654 <GetTime>
a3f83184:	e2800005 	add	r0, r0, #5	; 0x5
a3f83188:	e1d730b0 	ldrh	r3, [r7]
a3f8318c:	e1a09004 	mov	r9, r4
a3f83190:	e2433005 	sub	r3, r3, #5	; 0x5
a3f83194:	e1a03803 	mov	r3, r3, lsl #16
a3f83198:	e3530801 	cmp	r3, #65536	; 0x10000
a3f8319c:	e5880000 	str	r0, [r8]
a3f831a0:	e50b5030 	str	r5, [fp, -#48]
a3f831a4:	e59f50bc 	ldr	r5, [pc, #188]	; a3f83268 <TftpStart+0x218>
a3f831a8:	9a000010 	bls	a3f831f0 <TftpStart+0x1a0>
a3f831ac:	e1a04007 	mov	r4, r7
a3f831b0:	e59f70b4 	ldr	r7, [pc, #180]	; a3f8326c <TftpStart+0x21c>
a3f831b4:	e51b002c 	ldr	r0, [fp, -#44]
a3f831b8:	ebfffc75 	bl	a3f82394 <RxPacket>
a3f831bc:	eb000124 	bl	a3f83654 <GetTime>
a3f831c0:	e5983000 	ldr	r3, [r8]
a3f831c4:	e1500003 	cmp	r0, r3
a3f831c8:	9a000003 	bls	a3f831dc <TftpStart+0x18c>
a3f831cc:	e79a0007 	ldr	r0, [sl, r7]
a3f831d0:	ebfffa06 	bl	a3f819f0 <printf>
a3f831d4:	e3a03006 	mov	r3, #6	; 0x6
a3f831d8:	e1c430b0 	strh	r3, [r4]
a3f831dc:	e1d430b0 	ldrh	r3, [r4]
a3f831e0:	e2433005 	sub	r3, r3, #5	; 0x5
a3f831e4:	e1a03803 	mov	r3, r3, lsl #16
a3f831e8:	e3530801 	cmp	r3, #65536	; 0x10000
a3f831ec:	8afffff0 	bhi	a3f831b4 <TftpStart+0x164>
a3f831f0:	e3a00001 	mov	r0, #1	; 0x1
a3f831f4:	e79a2006 	ldr	r2, [sl, r6]
a3f831f8:	e79a1009 	ldr	r1, [sl, r9]
a3f831fc:	e51b3030 	ldr	r3, [fp, -#48]
a3f83200:	e79ac005 	ldr	ip, [sl, r5]
a3f83204:	e79ae003 	ldr	lr, [sl, r3]
a3f83208:	e3a03000 	mov	r3, #0	; 0x0
a3f8320c:	e1c230b0 	strh	r3, [r2]
a3f83210:	e1c130b0 	strh	r3, [r1]
a3f83214:	e1cc30b0 	strh	r3, [ip]
a3f83218:	e1ce30b0 	strh	r3, [lr]
a3f8321c:	e91baff0 	ldmdb	fp, {r4, r5, r6, r7, r8, r9, sl, fp, sp, pc}
a3f83220:	ffffcf90 	swinv	0x00ffcf90
a3f83224:	00004a90 	muleq	r0, r0, sl
a3f83228:	00004c24 	andeq	r4, r0, r4, lsr #24
a3f8322c:	00004c28 	andeq	r4, r0, r8, lsr #24
a3f83230:	00004c2c 	andeq	r4, r0, ip, lsr #24
a3f83234:	00004ad4 	ldreqd	r4, [r0], -r4
a3f83238:	00004c30 	andeq	r4, r0, r0, lsr ip
a3f8323c:	00004c34 	andeq	r4, r0, r4, lsr ip
a3f83240:	00004ae0 	andeq	r4, r0, r0, ror #21
a3f83244:	00004c38 	andeq	r4, r0, r8, lsr ip
a3f83248:	00004c3c 	andeq	r4, r0, ip, lsr ip
a3f8324c:	00004c0c 	andeq	r4, r0, ip, lsl #24
a3f83250:	00004c40 	andeq	r4, r0, r0, asr #24
a3f83254:	00004c44 	andeq	r4, r0, r4, asr #24
a3f83258:	00004a8c 	andeq	r4, r0, ip, lsl #21
a3f8325c:	00004c48 	andeq	r4, r0, r8, asr #24
a3f83260:	00004be4 	andeq	r4, r0, r4, ror #23
a3f83264:	00004c4c 	andeq	r4, r0, ip, asr #24
a3f83268:	00004c50 	andeq	r4, r0, r0, asr ip
a3f8326c:	00004c54 	andeq	r4, r0, r4, asr ip

a3f83270 <TftpTx>:
a3f83270:	e1a0c00d 	mov	ip, sp
a3f83274:	e92ddc70 	stmdb	sp!, {r4, r5, r6, sl, fp, ip, lr, pc}
a3f83278:	e24cb004 	sub	fp, ip, #4	; 0x4
a3f8327c:	e1a06000 	mov	r6, r0
a3f83280:	e3a01000 	mov	r1, #0	; 0x0
a3f83284:	e59fa190 	ldr	sl, [pc, #400]	; a3f8341c <TftpTx+0x1ac>
a3f83288:	e3a02e26 	mov	r2, #608	; 0x260
a3f8328c:	e08fa00a 	add	sl, pc, sl
a3f83290:	ebfff889 	bl	a3f814bc <MemSet>
a3f83294:	e59f3184 	ldr	r3, [pc, #388]	; a3f83420 <TftpTx+0x1b0>
a3f83298:	e79a1003 	ldr	r1, [sl, r3]
a3f8329c:	e1d120f0 	ldrsh	r2, [r1]
a3f832a0:	e286502a 	add	r5, r6, #42	; 0x2a
a3f832a4:	e2422001 	sub	r2, r2, #1	; 0x1
a3f832a8:	e3520003 	cmp	r2, #3	; 0x3
a3f832ac:	908ff102 	addls	pc, pc, r2, lsl #2
a3f832b0:	ea00003d 	b	a3f833ac <TftpTx+0x13c>
a3f832b4:	ea000002 	b	a3f832c4 <TftpTx+0x54>
a3f832b8:	ea000013 	b	a3f8330c <TftpTx+0x9c>
a3f832bc:	ea000021 	b	a3f83348 <TftpTx+0xd8>
a3f832c0:	ea00002b 	b	a3f83374 <TftpTx+0x104>
a3f832c4:	e59f3158 	ldr	r3, [pc, #344]	; a3f83424 <TftpTx+0x1b4>
a3f832c8:	e3a02c01 	mov	r2, #256	; 0x100
a3f832cc:	e0c520b2 	strh	r2, [r5], #2
a3f832d0:	e79a4003 	ldr	r4, [sl, r3]
a3f832d4:	e1a00005 	mov	r0, r5
a3f832d8:	e1a01004 	mov	r1, r4
a3f832dc:	ebfff88d 	bl	a3f81518 <StrCpy>
a3f832e0:	e1a00004 	mov	r0, r4
a3f832e4:	ebfff896 	bl	a3f81544 <StrLen>
a3f832e8:	e2800001 	add	r0, r0, #1	; 0x1
a3f832ec:	e59f3134 	ldr	r3, [pc, #308]	; a3f83428 <TftpTx+0x1b8>
a3f832f0:	e0855000 	add	r5, r5, r0
a3f832f4:	e79a1003 	ldr	r1, [sl, r3]
a3f832f8:	e1a00005 	mov	r0, r5
a3f832fc:	ebfff885 	bl	a3f81518 <StrCpy>
a3f83300:	e59f3124 	ldr	r3, [pc, #292]	; a3f8342c <TftpTx+0x1bc>
a3f83304:	e2452024 	sub	r2, r5, #36	; 0x24
a3f83308:	ea000023 	b	a3f8339c <TftpTx+0x12c>
a3f8330c:	e59f311c 	ldr	r3, [pc, #284]	; a3f83430 <TftpTx+0x1c0>
a3f83310:	e79a2003 	ldr	r2, [sl, r3]
a3f83314:	e3a03b01 	mov	r3, #1024	; 0x400
a3f83318:	e0c530b2 	strh	r3, [r5], #2
a3f8331c:	e1d230b0 	ldrh	r3, [r2]
a3f83320:	e59f210c 	ldr	r2, [pc, #268]	; a3f83434 <TftpTx+0x1c4>
a3f83324:	e20310ff 	and	r1, r3, #255	; 0xff
a3f83328:	e1a03423 	mov	r3, r3, lsr #8
a3f8332c:	e1833401 	orr	r3, r3, r1, lsl #8
a3f83330:	e0c530b2 	strh	r3, [r5], #2
a3f83334:	e245302a 	sub	r3, r5, #42	; 0x2a
a3f83338:	e79a1002 	ldr	r1, [sl, r2]
a3f8333c:	e0664003 	rsb	r4, r6, r3
a3f83340:	e1d110b0 	ldrh	r1, [r1]
a3f83344:	ea000019 	b	a3f833b0 <TftpTx+0x140>
a3f83348:	e3a02c05 	mov	r2, #1280	; 0x500
a3f8334c:	e0c520b2 	strh	r2, [r5], #2
a3f83350:	e59f30e0 	ldr	r3, [pc, #224]	; a3f83438 <TftpTx+0x1c8>
a3f83354:	e3a02c03 	mov	r2, #768	; 0x300
a3f83358:	e0c520b2 	strh	r2, [r5], #2
a3f8335c:	e79a1003 	ldr	r1, [sl, r3]
a3f83360:	e1a00005 	mov	r0, r5
a3f83364:	ebfff86b 	bl	a3f81518 <StrCpy>
a3f83368:	e59f30c4 	ldr	r3, [pc, #196]	; a3f83434 <TftpTx+0x1c4>
a3f8336c:	e245201b 	sub	r2, r5, #27	; 0x1b
a3f83370:	ea000009 	b	a3f8339c <TftpTx+0x12c>
a3f83374:	e3a03c05 	mov	r3, #1280	; 0x500
a3f83378:	e0c530b2 	strh	r3, [r5], #2
a3f8337c:	e59f30b8 	ldr	r3, [pc, #184]	; a3f8343c <TftpTx+0x1cc>
a3f83380:	e3a02c02 	mov	r2, #512	; 0x200
a3f83384:	e0c520b2 	strh	r2, [r5], #2
a3f83388:	e79a1003 	ldr	r1, [sl, r3]
a3f8338c:	e1a00005 	mov	r0, r5
a3f83390:	ebfff860 	bl	a3f81518 <StrCpy>
a3f83394:	e59f3098 	ldr	r3, [pc, #152]	; a3f83434 <TftpTx+0x1c4>
a3f83398:	e2452017 	sub	r2, r5, #23	; 0x17
a3f8339c:	e79a1003 	ldr	r1, [sl, r3]
a3f833a0:	e0664002 	rsb	r4, r6, r2
a3f833a4:	e1d110b0 	ldrh	r1, [r1]
a3f833a8:	ea000000 	b	a3f833b0 <TftpTx+0x140>
a3f833ac:	e91bac70 	ldmdb	fp, {r4, r5, r6, sl, fp, sp, pc}
a3f833b0:	e59f3088 	ldr	r3, [pc, #136]	; a3f83440 <TftpTx+0x1d0>
a3f833b4:	e2860022 	add	r0, r6, #34	; 0x22
a3f833b8:	e79ac003 	ldr	ip, [sl, r3]
a3f833bc:	e1a03804 	mov	r3, r4, lsl #16
a3f833c0:	e1dc20b0 	ldrh	r2, [ip]
a3f833c4:	e1a03823 	mov	r3, r3, lsr #16
a3f833c8:	ebfffd62 	bl	a3f82958 <SetUdpHeader>
a3f833cc:	e286000e 	add	r0, r6, #14	; 0xe
a3f833d0:	e59f306c 	ldr	r3, [pc, #108]	; a3f83444 <TftpTx+0x1d4>
a3f833d4:	e59f206c 	ldr	r2, [pc, #108]	; a3f83448 <TftpTx+0x1d8>
a3f833d8:	e79ac003 	ldr	ip, [sl, r3]
a3f833dc:	e2843008 	add	r3, r4, #8	; 0x8
a3f833e0:	e1a03803 	mov	r3, r3, lsl #16
a3f833e4:	e79ae002 	ldr	lr, [sl, r2]
a3f833e8:	e59c1000 	ldr	r1, [ip]
a3f833ec:	e59e2000 	ldr	r2, [lr]
a3f833f0:	e1a03823 	mov	r3, r3, lsr #16
a3f833f4:	ebfffd1d 	bl	a3f82870 <SetIPHeader>
a3f833f8:	e59f304c 	ldr	r3, [pc, #76]	; a3f8344c <TftpTx+0x1dc>
a3f833fc:	e1a00006 	mov	r0, r6
a3f83400:	e79a1003 	ldr	r1, [sl, r3]
a3f83404:	e3a02b02 	mov	r2, #2048	; 0x800
a3f83408:	ebfffd02 	bl	a3f82818 <SetEtherHeader>
a3f8340c:	e1a00006 	mov	r0, r6
a3f83410:	e284102a 	add	r1, r4, #42	; 0x2a
a3f83414:	ebfffbd9 	bl	a3f82380 <TxPacket>
a3f83418:	e91bac70 	ldmdb	fp, {r4, r5, r6, sl, fp, sp, pc}
a3f8341c:	ffffcd6c 	swinv	0x00ffcd6c
a3f83420:	00004c48 	andeq	r4, r0, r8, asr #24
a3f83424:	00004c38 	andeq	r4, r0, r8, lsr ip
a3f83428:	00004c58 	andeq	r4, r0, r8, asr ip
a3f8342c:	00004be0 	andeq	r4, r0, r0, ror #23
a3f83430:	00004c50 	andeq	r4, r0, r0, asr ip
a3f83434:	00004be4 	andeq	r4, r0, r4, ror #23
a3f83438:	00004c5c 	andeq	r4, r0, ip, asr ip
a3f8343c:	00004c60 	andeq	r4, r0, r0, ror #24
a3f83440:	00004be8 	andeq	r4, r0, r8, ror #23
a3f83444:	00004ae0 	andeq	r4, r0, r0, ror #21
a3f83448:	00004ad4 	ldreqd	r4, [r0], -r4
a3f8344c:	00004acc 	andeq	r4, r0, ip, asr #21

a3f83450 <TftpRx>:
a3f83450:	e1a0c00d 	mov	ip, sp
a3f83454:	e92ddff0 	stmdb	sp!, {r4, r5, r6, r7, r8, r9, sl, fp, ip, lr, pc}
a3f83458:	e24cb004 	sub	fp, ip, #4	; 0x4
a3f8345c:	e1a08000 	mov	r8, r0
a3f83460:	e1a04008 	mov	r4, r8
a3f83464:	e2416002 	sub	r6, r1, #2	; 0x2
a3f83468:	e59fa1b8 	ldr	sl, [pc, #440]	; a3f83628 <TftpRx+0x1d8>
a3f8346c:	e0d420b2 	ldrh	r2, [r4], #2
a3f83470:	e08fa00a 	add	sl, pc, sl
a3f83474:	e1a03802 	mov	r3, r2, lsl #16
a3f83478:	e1a03c43 	mov	r3, r3, asr #24
a3f8347c:	e1a03803 	mov	r3, r3, lsl #16
a3f83480:	e1833c02 	orr	r3, r3, r2, lsl #24
a3f83484:	e1a03843 	mov	r3, r3, asr #16
a3f83488:	e2433001 	sub	r3, r3, #1	; 0x1
a3f8348c:	e3530004 	cmp	r3, #4	; 0x4
a3f83490:	908ff103 	addls	pc, pc, r3, lsl #2
a3f83494:	ea000004 	b	a3f834ac <TftpRx+0x5c>
a3f83498:	ea000060 	b	a3f83620 <TftpRx+0x1d0>
a3f8349c:	ea00005f 	b	a3f83620 <TftpRx+0x1d0>
a3f834a0:	ea000002 	b	a3f834b0 <TftpRx+0x60>
a3f834a4:	ea00005d 	b	a3f83620 <TftpRx+0x1d0>
a3f834a8:	ea000050 	b	a3f835f0 <TftpRx+0x1a0>
a3f834ac:	ea00005b 	b	a3f83620 <TftpRx+0x1d0>
a3f834b0:	e3560001 	cmp	r6, #1	; 0x1
a3f834b4:	ca000001 	bgt	a3f834c0 <TftpRx+0x70>
a3f834b8:	e3a00000 	mov	r0, #0	; 0x0
a3f834bc:	e91baff0 	ldmdb	fp, {r4, r5, r6, r7, r8, r9, sl, fp, sp, pc}
a3f834c0:	e2466002 	sub	r6, r6, #2	; 0x2
a3f834c4:	e0d430b2 	ldrh	r3, [r4], #2
a3f834c8:	e59f115c 	ldr	r1, [pc, #348]	; a3f8362c <TftpRx+0x1dc>
a3f834cc:	e20320ff 	and	r2, r3, #255	; 0xff
a3f834d0:	e1a03423 	mov	r3, r3, lsr #8
a3f834d4:	e79a5001 	ldr	r5, [sl, r1]
a3f834d8:	e1833402 	orr	r3, r3, r2, lsl #8
a3f834dc:	e1c530b0 	strh	r3, [r5]
a3f834e0:	e1d520b0 	ldrh	r2, [r5]
a3f834e4:	e1a07001 	mov	r7, r1
a3f834e8:	e312007f 	tst	r2, #127	; 0x7f
a3f834ec:	1a000005 	bne	a3f83508 <TftpRx+0xb8>
a3f834f0:	ebfff5ae 	bl	a3f80bb0 <ClearLine>
a3f834f4:	e59f3134 	ldr	r3, [pc, #308]	; a3f83630 <TftpRx+0x1e0>
a3f834f8:	e1d510b0 	ldrh	r1, [r5]
a3f834fc:	e79a0003 	ldr	r0, [sl, r3]
a3f83500:	e1a01481 	mov	r1, r1, lsl #9
a3f83504:	ebfff939 	bl	a3f819f0 <printf>
a3f83508:	e59f2124 	ldr	r2, [pc, #292]	; a3f83634 <TftpRx+0x1e4>
a3f8350c:	e79a1002 	ldr	r1, [sl, r2]
a3f83510:	e59fc120 	ldr	ip, [pc, #288]	; a3f83638 <TftpRx+0x1e8>
a3f83514:	e1d130f0 	ldrsh	r3, [r1]
a3f83518:	e1a09002 	mov	r9, r2
a3f8351c:	e3530001 	cmp	r3, #1	; 0x1
a3f83520:	1a00000a 	bne	a3f83550 <TftpRx+0x100>
a3f83524:	e3a02002 	mov	r2, #2	; 0x2
a3f83528:	e1d530b0 	ldrh	r3, [r5]
a3f8352c:	e3a00000 	mov	r0, #0	; 0x0
a3f83530:	e1c120b0 	strh	r2, [r1]
a3f83534:	e79a200c 	ldr	r2, [sl, ip]
a3f83538:	e3530001 	cmp	r3, #1	; 0x1
a3f8353c:	e1c200b0 	strh	r0, [r2]
a3f83540:	0a000002 	beq	a3f83550 <TftpRx+0x100>
a3f83544:	e3a03006 	mov	r3, #6	; 0x6
a3f83548:	e1c130b0 	strh	r3, [r1]
a3f8354c:	e91baff0 	ldmdb	fp, {r4, r5, r6, r7, r8, r9, sl, fp, sp, pc}
a3f83550:	e79a5007 	ldr	r5, [sl, r7]
a3f83554:	e79ae00c 	ldr	lr, [sl, ip]
a3f83558:	e1d5c0b0 	ldrh	ip, [r5]
a3f8355c:	e1de30f0 	ldrsh	r3, [lr]
a3f83560:	e15c0003 	cmp	ip, r3
a3f83564:	da00002d 	ble	a3f83620 <TftpRx+0x1d0>
a3f83568:	e1a01004 	mov	r1, r4
a3f8356c:	e59f00c8 	ldr	r0, [pc, #200]	; a3f8363c <TftpRx+0x1ec>
a3f83570:	e1a02006 	mov	r2, r6
a3f83574:	e1cec0b0 	strh	ip, [lr]
a3f83578:	e79a3000 	ldr	r3, [sl, r0]
a3f8357c:	e1d500b0 	ldrh	r0, [r5]
a3f83580:	e593c000 	ldr	ip, [r3]
a3f83584:	e2400001 	sub	r0, r0, #1	; 0x1
a3f83588:	e08c0480 	add	r0, ip, r0, lsl #9
a3f8358c:	ebfff7c2 	bl	a3f8149c <MemCpy>
a3f83590:	e59f30a8 	ldr	r3, [pc, #168]	; a3f83640 <TftpRx+0x1f0>
a3f83594:	e79a4003 	ldr	r4, [sl, r3]
a3f83598:	eb00002d 	bl	a3f83654 <GetTime>
a3f8359c:	e2803005 	add	r3, r0, #5	; 0x5
a3f835a0:	e1a00008 	mov	r0, r8
a3f835a4:	e5843000 	str	r3, [r4]
a3f835a8:	ebffff30 	bl	a3f83270 <TftpTx>
a3f835ac:	e3560c02 	cmp	r6, #512	; 0x200
a3f835b0:	aa00001a 	bge	a3f83620 <TftpRx+0x1d0>
a3f835b4:	ebfff57d 	bl	a3f80bb0 <ClearLine>
a3f835b8:	e1d530b0 	ldrh	r3, [r5]
a3f835bc:	e59f2080 	ldr	r2, [pc, #128]	; a3f83644 <TftpRx+0x1f4>
a3f835c0:	e2433001 	sub	r3, r3, #1	; 0x1
a3f835c4:	e0861483 	add	r1, r6, r3, lsl #9
a3f835c8:	e79a0002 	ldr	r0, [sl, r2]
a3f835cc:	e1a02001 	mov	r2, r1
a3f835d0:	ebfff906 	bl	a3f819f0 <printf>
a3f835d4:	e59f306c 	ldr	r3, [pc, #108]	; a3f83648 <TftpRx+0x1f8>
a3f835d8:	e79a0003 	ldr	r0, [sl, r3]
a3f835dc:	ebfff903 	bl	a3f819f0 <printf>
a3f835e0:	e79a3009 	ldr	r3, [sl, r9]
a3f835e4:	e3a02005 	mov	r2, #5	; 0x5
a3f835e8:	e1c320b0 	strh	r2, [r3]
a3f835ec:	ea00000b 	b	a3f83620 <TftpRx+0x1d0>
a3f835f0:	e2841002 	add	r1, r4, #2	; 0x2
a3f835f4:	e59f3050 	ldr	r3, [pc, #80]	; a3f8364c <TftpRx+0x1fc>
a3f835f8:	e1d420b0 	ldrh	r2, [r4]
a3f835fc:	e79a0003 	ldr	r0, [sl, r3]
a3f83600:	e5d43000 	ldrb	r3, [r4]
a3f83604:	e1a02422 	mov	r2, r2, lsr #8
a3f83608:	e1822403 	orr	r2, r2, r3, lsl #8
a3f8360c:	ebfff8f7 	bl	a3f819f0 <printf>
a3f83610:	e59f301c 	ldr	r3, [pc, #28]	; a3f83634 <TftpRx+0x1e4>
a3f83614:	e79a2003 	ldr	r2, [sl, r3]
a3f83618:	e3a03006 	mov	r3, #6	; 0x6
a3f8361c:	e1c230b0 	strh	r3, [r2]
a3f83620:	e3a00001 	mov	r0, #1	; 0x1
a3f83624:	e91baff0 	ldmdb	fp, {r4, r5, r6, r7, r8, r9, sl, fp, sp, pc}
a3f83628:	ffffcb88 	swinv	0x00ffcb88
a3f8362c:	00004c50 	andeq	r4, r0, r0, asr ip
a3f83630:	00004c64 	andeq	r4, r0, r4, ror #24
a3f83634:	00004c48 	andeq	r4, r0, r8, asr #24
a3f83638:	00004c68 	andeq	r4, r0, r8, ror #24
a3f8363c:	00004c0c 	andeq	r4, r0, ip, lsl #24
a3f83640:	00004c4c 	andeq	r4, r0, ip, asr #24
a3f83644:	00004c6c 	andeq	r4, r0, ip, ror #24
a3f83648:	00004c70 	andeq	r4, r0, r0, ror ip
a3f8364c:	00004c74 	andeq	r4, r0, r4, ror ip

a3f83650 <TimerInit>:
a3f83650:	e1a0f00e 	mov	pc, lr

a3f83654 <GetTime>:
a3f83654:	e59f3004 	ldr	r3, [pc, #4]	; a3f83660 <GetTime+0xc>
a3f83658:	e5930000 	ldr	r0, [r3]
a3f8365c:	e1a0f00e 	mov	pc, lr
a3f83660:	40900000 	addmis	r0, r0, r0

a3f83664 <DoMemCpy>:
a3f83664:	e1a0c00d 	mov	ip, sp
a3f83668:	e92ddc10 	stmdb	sp!, {r4, sl, fp, ip, lr, pc}
a3f8366c:	e24cb004 	sub	fp, ip, #4	; 0x4
a3f83670:	e3510003 	cmp	r1, #3	; 0x3
a3f83674:	e59fa088 	ldr	sl, [pc, #136]	; a3f83704 <DoMemCpy+0xa0>
a3f83678:	e1a04002 	mov	r4, r2
a3f8367c:	e08fa00a 	add	sl, pc, sl
a3f83680:	e24dd00c 	sub	sp, sp, #12	; 0xc
a3f83684:	ca000003 	bgt	a3f83698 <DoMemCpy+0x34>
a3f83688:	e5900008 	ldr	r0, [r0, #8]
a3f8368c:	ebfff8d7 	bl	a3f819f0 <printf>
a3f83690:	e3a00000 	mov	r0, #0	; 0x0
a3f83694:	e91bac10 	ldmdb	fp, {r4, sl, fp, sp, pc}
a3f83698:	e24b1018 	sub	r1, fp, #24	; 0x18
a3f8369c:	e5940004 	ldr	r0, [r4, #4]
a3f836a0:	e3a02020 	mov	r2, #32	; 0x20
a3f836a4:	ebfff7db 	bl	a3f81618 <HexToInt>
a3f836a8:	e3500000 	cmp	r0, #0	; 0x0
a3f836ac:	0a00000b 	beq	a3f836e0 <DoMemCpy+0x7c>
a3f836b0:	e24b101c 	sub	r1, fp, #28	; 0x1c
a3f836b4:	e5940008 	ldr	r0, [r4, #8]
a3f836b8:	e3a02020 	mov	r2, #32	; 0x20
a3f836bc:	ebfff7d5 	bl	a3f81618 <HexToInt>
a3f836c0:	e3500000 	cmp	r0, #0	; 0x0
a3f836c4:	0a000005 	beq	a3f836e0 <DoMemCpy+0x7c>
a3f836c8:	e24b1020 	sub	r1, fp, #32	; 0x20
a3f836cc:	e594000c 	ldr	r0, [r4, #12]
a3f836d0:	e3a02020 	mov	r2, #32	; 0x20
a3f836d4:	ebfff7cf 	bl	a3f81618 <HexToInt>
a3f836d8:	e3500000 	cmp	r0, #0	; 0x0
a3f836dc:	1a000002 	bne	a3f836ec <DoMemCpy+0x88>
a3f836e0:	e59f3020 	ldr	r3, [pc, #32]	; a3f83708 <DoMemCpy+0xa4>
a3f836e4:	e79a0003 	ldr	r0, [sl, r3]
a3f836e8:	eaffffe7 	b	a3f8368c <DoMemCpy+0x28>
a3f836ec:	e51b0018 	ldr	r0, [fp, -#24]
a3f836f0:	e51b101c 	ldr	r1, [fp, -#28]
a3f836f4:	e51b2020 	ldr	r2, [fp, -#32]
a3f836f8:	ebfff767 	bl	a3f8149c <MemCpy>
a3f836fc:	e3a00001 	mov	r0, #1	; 0x1
a3f83700:	e91bac10 	ldmdb	fp, {r4, sl, fp, sp, pc}
a3f83704:	ffffc97c 	swinv	0x00ffc97c
a3f83708:	00004c78 	andeq	r4, r0, r8, ror ip

a3f8370c <DoMemDump>:
a3f8370c:	e1a0c00d 	mov	ip, sp
a3f83710:	e92dddf0 	stmdb	sp!, {r4, r5, r6, r7, r8, sl, fp, ip, lr, pc}
a3f83714:	e24cb004 	sub	fp, ip, #4	; 0x4
a3f83718:	e3510002 	cmp	r1, #2	; 0x2
a3f8371c:	e59fa0f0 	ldr	sl, [pc, #240]	; a3f83814 <DoMemDump+0x108>
a3f83720:	e1a04002 	mov	r4, r2
a3f83724:	e08fa00a 	add	sl, pc, sl
a3f83728:	e24dd008 	sub	sp, sp, #8	; 0x8
a3f8372c:	ca000003 	bgt	a3f83740 <DoMemDump+0x34>
a3f83730:	e5900008 	ldr	r0, [r0, #8]
a3f83734:	ebfff8ad 	bl	a3f819f0 <printf>
a3f83738:	e3a00000 	mov	r0, #0	; 0x0
a3f8373c:	e91badf0 	ldmdb	fp, {r4, r5, r6, r7, r8, sl, fp, sp, pc}
a3f83740:	e24b1028 	sub	r1, fp, #40	; 0x28
a3f83744:	e5940004 	ldr	r0, [r4, #4]
a3f83748:	e3a02020 	mov	r2, #32	; 0x20
a3f8374c:	ebfff7b1 	bl	a3f81618 <HexToInt>
a3f83750:	e3500000 	cmp	r0, #0	; 0x0
a3f83754:	0a000005 	beq	a3f83770 <DoMemDump+0x64>
a3f83758:	e24b102c 	sub	r1, fp, #44	; 0x2c
a3f8375c:	e5940008 	ldr	r0, [r4, #8]
a3f83760:	e3a02020 	mov	r2, #32	; 0x20
a3f83764:	ebfff7ab 	bl	a3f81618 <HexToInt>
a3f83768:	e3500000 	cmp	r0, #0	; 0x0
a3f8376c:	1a000002 	bne	a3f8377c <DoMemDump+0x70>
a3f83770:	e59f30a0 	ldr	r3, [pc, #160]	; a3f83818 <DoMemDump+0x10c>
a3f83774:	e79a0003 	ldr	r0, [sl, r3]
a3f83778:	eaffffed 	b	a3f83734 <DoMemDump+0x28>
a3f8377c:	e51b2028 	ldr	r2, [fp, -#40]
a3f83780:	e24b3028 	sub	r3, fp, #40	; 0x28
a3f83784:	e8130048 	ldmda	r3, {r3, r6}
a3f83788:	e0866003 	add	r6, r6, r3
a3f8378c:	e3a05000 	mov	r5, #0	; 0x0
a3f83790:	e1520006 	cmp	r2, r6
a3f83794:	2a00001c 	bcs	a3f8380c <DoMemDump+0x100>
a3f83798:	e59f807c 	ldr	r8, [pc, #124]	; a3f8381c <DoMemDump+0x110>
a3f8379c:	e59f707c 	ldr	r7, [pc, #124]	; a3f83820 <DoMemDump+0x114>
a3f837a0:	e5d23000 	ldrb	r3, [r2]
a3f837a4:	e3150003 	tst	r5, #3	; 0x3
a3f837a8:	e20340ff 	and	r4, r3, #255	; 0xff
a3f837ac:	1a000001 	bne	a3f837b8 <DoMemDump+0xac>
a3f837b0:	e79a0008 	ldr	r0, [sl, r8]
a3f837b4:	ebfff88d 	bl	a3f819f0 <printf>
a3f837b8:	e79a0007 	ldr	r0, [sl, r7]
a3f837bc:	e1a01004 	mov	r1, r4
a3f837c0:	ebfff88a 	bl	a3f819f0 <printf>
a3f837c4:	e2854001 	add	r4, r5, #1	; 0x1
a3f837c8:	e3140003 	tst	r4, #3	; 0x3
a3f837cc:	1a000002 	bne	a3f837dc <DoMemDump+0xd0>
a3f837d0:	e59f304c 	ldr	r3, [pc, #76]	; a3f83824 <DoMemDump+0x118>
a3f837d4:	e79a0003 	ldr	r0, [sl, r3]
a3f837d8:	ebfff884 	bl	a3f819f0 <printf>
a3f837dc:	e314000f 	tst	r4, #15	; 0xf
a3f837e0:	1a000002 	bne	a3f837f0 <DoMemDump+0xe4>
a3f837e4:	e59f303c 	ldr	r3, [pc, #60]	; a3f83828 <DoMemDump+0x11c>
a3f837e8:	e79a0003 	ldr	r0, [sl, r3]
a3f837ec:	ebfff87f 	bl	a3f819f0 <printf>
a3f837f0:	e51b3028 	ldr	r3, [fp, -#40]
a3f837f4:	e1a05004 	mov	r5, r4
a3f837f8:	e2833001 	add	r3, r3, #1	; 0x1
a3f837fc:	e1a02003 	mov	r2, r3
a3f83800:	e1520006 	cmp	r2, r6
a3f83804:	e50b3028 	str	r3, [fp, -#40]
a3f83808:	3affffe4 	bcc	a3f837a0 <DoMemDump+0x94>
a3f8380c:	e3a00001 	mov	r0, #1	; 0x1
a3f83810:	e91badf0 	ldmdb	fp, {r4, r5, r6, r7, r8, sl, fp, sp, pc}
a3f83814:	ffffc8d4 	swinv	0x00ffc8d4
a3f83818:	00004c78 	andeq	r4, r0, r8, ror ip
a3f8381c:	00004c7c 	andeq	r4, r0, ip, ror ip
a3f83820:	00004c80 	andeq	r4, r0, r0, lsl #25
a3f83824:	00004c84 	andeq	r4, r0, r4, lsl #25
a3f83828:	00004c88 	andeq	r4, r0, r8, lsl #25

a3f8382c <DoHexDump>:
a3f8382c:	e1a0c00d 	mov	ip, sp
a3f83830:	e92ddc10 	stmdb	sp!, {r4, sl, fp, ip, lr, pc}
a3f83834:	e24cb004 	sub	fp, ip, #4	; 0x4
a3f83838:	e3510002 	cmp	r1, #2	; 0x2
a3f8383c:	e59fa06c 	ldr	sl, [pc, #108]	; a3f838b0 <DoHexDump+0x84>
a3f83840:	e1a04002 	mov	r4, r2
a3f83844:	e08fa00a 	add	sl, pc, sl
a3f83848:	e24dd008 	sub	sp, sp, #8	; 0x8
a3f8384c:	ca000003 	bgt	a3f83860 <DoHexDump+0x34>
a3f83850:	e5900008 	ldr	r0, [r0, #8]
a3f83854:	ebfff865 	bl	a3f819f0 <printf>
a3f83858:	e3a00000 	mov	r0, #0	; 0x0
a3f8385c:	e91bac10 	ldmdb	fp, {r4, sl, fp, sp, pc}
a3f83860:	e24b1018 	sub	r1, fp, #24	; 0x18
a3f83864:	e5940004 	ldr	r0, [r4, #4]
a3f83868:	e3a02020 	mov	r2, #32	; 0x20
a3f8386c:	ebfff769 	bl	a3f81618 <HexToInt>
a3f83870:	e3500000 	cmp	r0, #0	; 0x0
a3f83874:	0a000005 	beq	a3f83890 <DoHexDump+0x64>
a3f83878:	e24b101c 	sub	r1, fp, #28	; 0x1c
a3f8387c:	e5940008 	ldr	r0, [r4, #8]
a3f83880:	e3a02020 	mov	r2, #32	; 0x20
a3f83884:	ebfff763 	bl	a3f81618 <HexToInt>
a3f83888:	e3500000 	cmp	r0, #0	; 0x0
a3f8388c:	1a000002 	bne	a3f8389c <DoHexDump+0x70>
a3f83890:	e59f301c 	ldr	r3, [pc, #28]	; a3f838b4 <DoHexDump+0x88>
a3f83894:	e79a0003 	ldr	r0, [sl, r3]
a3f83898:	eaffffed 	b	a3f83854 <DoHexDump+0x28>
a3f8389c:	e51b0018 	ldr	r0, [fp, -#24]
a3f838a0:	e51b101c 	ldr	r1, [fp, -#28]
a3f838a4:	ebfff7c2 	bl	a3f817b4 <HexDump>
a3f838a8:	e3a00001 	mov	r0, #1	; 0x1
a3f838ac:	e91bac10 	ldmdb	fp, {r4, sl, fp, sp, pc}
a3f838b0:	ffffc7b4 	swinv	0x00ffc7b4
a3f838b4:	00004c8c 	andeq	r4, r0, ip, lsl #25

a3f838b8 <DoMemCmp>:
a3f838b8:	e1a0c00d 	mov	ip, sp
a3f838bc:	e92ddc10 	stmdb	sp!, {r4, sl, fp, ip, lr, pc}
a3f838c0:	e24cb004 	sub	fp, ip, #4	; 0x4
a3f838c4:	e3510003 	cmp	r1, #3	; 0x3
a3f838c8:	e59fa0ac 	ldr	sl, [pc, #172]	; a3f8397c <DoMemCmp+0xc4>
a3f838cc:	e1a04002 	mov	r4, r2
a3f838d0:	e08fa00a 	add	sl, pc, sl
a3f838d4:	e24dd00c 	sub	sp, sp, #12	; 0xc
a3f838d8:	ca000003 	bgt	a3f838ec <DoMemCmp+0x34>
a3f838dc:	e5900008 	ldr	r0, [r0, #8]
a3f838e0:	ebfff842 	bl	a3f819f0 <printf>
a3f838e4:	e3a00000 	mov	r0, #0	; 0x0
a3f838e8:	e91bac10 	ldmdb	fp, {r4, sl, fp, sp, pc}
a3f838ec:	e24b1018 	sub	r1, fp, #24	; 0x18
a3f838f0:	e5940004 	ldr	r0, [r4, #4]
a3f838f4:	e3a02020 	mov	r2, #32	; 0x20
a3f838f8:	ebfff746 	bl	a3f81618 <HexToInt>
a3f838fc:	e3500000 	cmp	r0, #0	; 0x0
a3f83900:	0a00000b 	beq	a3f83934 <DoMemCmp+0x7c>
a3f83904:	e24b101c 	sub	r1, fp, #28	; 0x1c
a3f83908:	e5940008 	ldr	r0, [r4, #8]
a3f8390c:	e3a02020 	mov	r2, #32	; 0x20
a3f83910:	ebfff740 	bl	a3f81618 <HexToInt>
a3f83914:	e3500000 	cmp	r0, #0	; 0x0
a3f83918:	0a000005 	beq	a3f83934 <DoMemCmp+0x7c>
a3f8391c:	e24b1020 	sub	r1, fp, #32	; 0x20
a3f83920:	e594000c 	ldr	r0, [r4, #12]
a3f83924:	e3a02020 	mov	r2, #32	; 0x20
a3f83928:	ebfff73a 	bl	a3f81618 <HexToInt>
a3f8392c:	e3500000 	cmp	r0, #0	; 0x0
a3f83930:	1a000002 	bne	a3f83940 <DoMemCmp+0x88>
a3f83934:	e59f3044 	ldr	r3, [pc, #68]	; a3f83980 <DoMemCmp+0xc8>
a3f83938:	e79a0003 	ldr	r0, [sl, r3]
a3f8393c:	eaffffe7 	b	a3f838e0 <DoMemCmp+0x28>
a3f83940:	e51b0018 	ldr	r0, [fp, -#24]
a3f83944:	e51b101c 	ldr	r1, [fp, -#28]
a3f83948:	e51b2020 	ldr	r2, [fp, -#32]
a3f8394c:	ebfff6e2 	bl	a3f814dc <MemCmp>
a3f83950:	e3500000 	cmp	r0, #0	; 0x0
a3f83954:	1a000003 	bne	a3f83968 <DoMemCmp+0xb0>
a3f83958:	e59f3024 	ldr	r3, [pc, #36]	; a3f83984 <DoMemCmp+0xcc>
a3f8395c:	e79a0003 	ldr	r0, [sl, r3]
a3f83960:	ebfff822 	bl	a3f819f0 <printf>
a3f83964:	ea000002 	b	a3f83974 <DoMemCmp+0xbc>
a3f83968:	e59f3018 	ldr	r3, [pc, #24]	; a3f83988 <DoMemCmp+0xd0>
a3f8396c:	e79a0003 	ldr	r0, [sl, r3]
a3f83970:	ebfff81e 	bl	a3f819f0 <printf>
a3f83974:	e3a00001 	mov	r0, #1	; 0x1
a3f83978:	e91bac10 	ldmdb	fp, {r4, sl, fp, sp, pc}
a3f8397c:	ffffc728 	swinv	0x00ffc728
a3f83980:	00004c8c 	andeq	r4, r0, ip, lsl #25
a3f83984:	00004c90 	muleq	r0, r0, ip
a3f83988:	00004c94 	muleq	r0, r4, ip

a3f8398c <DoMemSet>:
a3f8398c:	e1a0c00d 	mov	ip, sp
a3f83990:	e92ddc10 	stmdb	sp!, {r4, sl, fp, ip, lr, pc}
a3f83994:	e24cb004 	sub	fp, ip, #4	; 0x4
a3f83998:	e3510003 	cmp	r1, #3	; 0x3
a3f8399c:	e59fa088 	ldr	sl, [pc, #136]	; a3f83a2c <DoMemSet+0xa0>
a3f839a0:	e1a04002 	mov	r4, r2
a3f839a4:	e08fa00a 	add	sl, pc, sl
a3f839a8:	e24dd00c 	sub	sp, sp, #12	; 0xc
a3f839ac:	ca000003 	bgt	a3f839c0 <DoMemSet+0x34>
a3f839b0:	e5900008 	ldr	r0, [r0, #8]
a3f839b4:	ebfff80d 	bl	a3f819f0 <printf>
a3f839b8:	e3a00000 	mov	r0, #0	; 0x0
a3f839bc:	e91bac10 	ldmdb	fp, {r4, sl, fp, sp, pc}
a3f839c0:	e24b101c 	sub	r1, fp, #28	; 0x1c
a3f839c4:	e5940004 	ldr	r0, [r4, #4]
a3f839c8:	e3a02020 	mov	r2, #32	; 0x20
a3f839cc:	ebfff711 	bl	a3f81618 <HexToInt>
a3f839d0:	e3500000 	cmp	r0, #0	; 0x0
a3f839d4:	0a00000b 	beq	a3f83a08 <DoMemSet+0x7c>
a3f839d8:	e24b1015 	sub	r1, fp, #21	; 0x15
a3f839dc:	e5940008 	ldr	r0, [r4, #8]
a3f839e0:	e3a02008 	mov	r2, #8	; 0x8
a3f839e4:	ebfff70b 	bl	a3f81618 <HexToInt>
a3f839e8:	e3500000 	cmp	r0, #0	; 0x0
a3f839ec:	0a000005 	beq	a3f83a08 <DoMemSet+0x7c>
a3f839f0:	e24b1020 	sub	r1, fp, #32	; 0x20
a3f839f4:	e594000c 	ldr	r0, [r4, #12]
a3f839f8:	e3a02020 	mov	r2, #32	; 0x20
a3f839fc:	ebfff705 	bl	a3f81618 <HexToInt>
a3f83a00:	e3500000 	cmp	r0, #0	; 0x0
a3f83a04:	1a000002 	bne	a3f83a14 <DoMemSet+0x88>
a3f83a08:	e59f3020 	ldr	r3, [pc, #32]	; a3f83a30 <DoMemSet+0xa4>
a3f83a0c:	e79a0003 	ldr	r0, [sl, r3]
a3f83a10:	eaffffe7 	b	a3f839b4 <DoMemSet+0x28>
a3f83a14:	e51b001c 	ldr	r0, [fp, -#28]
a3f83a18:	e55b1015 	ldrb	r1, [fp, -#21]
a3f83a1c:	e51b2020 	ldr	r2, [fp, -#32]
a3f83a20:	ebfff6a5 	bl	a3f814bc <MemSet>
a3f83a24:	e3a00001 	mov	r0, #1	; 0x1
a3f83a28:	e91bac10 	ldmdb	fp, {r4, sl, fp, sp, pc}
a3f83a2c:	ffffc654 	swinv	0x00ffc654
a3f83a30:	00004c8c 	andeq	r4, r0, ip, lsl #25

a3f83a34 <DoReadFromReg>:
a3f83a34:	e1a0c00d 	mov	ip, sp
a3f83a38:	e92ddc30 	stmdb	sp!, {r4, r5, sl, fp, ip, lr, pc}
a3f83a3c:	e24cb004 	sub	fp, ip, #4	; 0x4
a3f83a40:	e3510002 	cmp	r1, #2	; 0x2
a3f83a44:	e3a04000 	mov	r4, #0	; 0x0
a3f83a48:	e59fa104 	ldr	sl, [pc, #260]	; a3f83b54 <DoReadFromReg+0x120>
a3f83a4c:	e1a05002 	mov	r5, r2
a3f83a50:	e08fa00a 	add	sl, pc, sl
a3f83a54:	e24dd004 	sub	sp, sp, #4	; 0x4
a3f83a58:	e50b401c 	str	r4, [fp, -#28]
a3f83a5c:	ca000003 	bgt	a3f83a70 <DoReadFromReg+0x3c>
a3f83a60:	e5900008 	ldr	r0, [r0, #8]
a3f83a64:	ebfff7e1 	bl	a3f819f0 <printf>
a3f83a68:	e1a00004 	mov	r0, r4
a3f83a6c:	e91bac30 	ldmdb	fp, {r4, r5, sl, fp, sp, pc}
a3f83a70:	e24b101c 	sub	r1, fp, #28	; 0x1c
a3f83a74:	e5950008 	ldr	r0, [r5, #8]
a3f83a78:	e3a02020 	mov	r2, #32	; 0x20
a3f83a7c:	ebfff6e5 	bl	a3f81618 <HexToInt>
a3f83a80:	e2504000 	subs	r4, r0, #0	; 0x0
a3f83a84:	1a000004 	bne	a3f83a9c <DoReadFromReg+0x68>
a3f83a88:	e59f30c8 	ldr	r3, [pc, #200]	; a3f83b58 <DoReadFromReg+0x124>
a3f83a8c:	e79a0003 	ldr	r0, [sl, r3]
a3f83a90:	ebfff7d6 	bl	a3f819f0 <printf>
a3f83a94:	e1a00004 	mov	r0, r4
a3f83a98:	e91bac30 	ldmdb	fp, {r4, r5, sl, fp, sp, pc}
a3f83a9c:	e59f30b8 	ldr	r3, [pc, #184]	; a3f83b5c <DoReadFromReg+0x128>
a3f83aa0:	e51b101c 	ldr	r1, [fp, -#28]
a3f83aa4:	e79a0003 	ldr	r0, [sl, r3]
a3f83aa8:	ebfff7d0 	bl	a3f819f0 <printf>
a3f83aac:	e59f30ac 	ldr	r3, [pc, #172]	; a3f83b60 <DoReadFromReg+0x12c>
a3f83ab0:	e79a0003 	ldr	r0, [sl, r3]
a3f83ab4:	ebfff7cd 	bl	a3f819f0 <printf>
a3f83ab8:	e5953004 	ldr	r3, [r5, #4]
a3f83abc:	e5d32000 	ldrb	r2, [r3]
a3f83ac0:	e352006c 	cmp	r2, #108	; 0x6c
a3f83ac4:	0a000012 	beq	a3f83b14 <DoReadFromReg+0xe0>
a3f83ac8:	ca000002 	bgt	a3f83ad8 <DoReadFromReg+0xa4>
a3f83acc:	e3520063 	cmp	r2, #99	; 0x63
a3f83ad0:	0a000003 	beq	a3f83ae4 <DoReadFromReg+0xb0>
a3f83ad4:	ea000014 	b	a3f83b2c <DoReadFromReg+0xf8>
a3f83ad8:	e3520073 	cmp	r2, #115	; 0x73
a3f83adc:	0a000004 	beq	a3f83af4 <DoReadFromReg+0xc0>
a3f83ae0:	ea000011 	b	a3f83b2c <DoReadFromReg+0xf8>
a3f83ae4:	e51b301c 	ldr	r3, [fp, -#28]
a3f83ae8:	e59f2074 	ldr	r2, [pc, #116]	; a3f83b64 <DoReadFromReg+0x130>
a3f83aec:	e5d31000 	ldrb	r1, [r3]
a3f83af0:	ea00000a 	b	a3f83b20 <DoReadFromReg+0xec>
a3f83af4:	e51b301c 	ldr	r3, [fp, -#28]
a3f83af8:	e59f2068 	ldr	r2, [pc, #104]	; a3f83b68 <DoReadFromReg+0x134>
a3f83afc:	e1d310b0 	ldrh	r1, [r3]
a3f83b00:	e79a0002 	ldr	r0, [sl, r2]
a3f83b04:	e1a01801 	mov	r1, r1, lsl #16
a3f83b08:	e1a01841 	mov	r1, r1, asr #16
a3f83b0c:	ebfff7b7 	bl	a3f819f0 <printf>
a3f83b10:	ea00000a 	b	a3f83b40 <DoReadFromReg+0x10c>
a3f83b14:	e51b301c 	ldr	r3, [fp, -#28]
a3f83b18:	e59f204c 	ldr	r2, [pc, #76]	; a3f83b6c <DoReadFromReg+0x138>
a3f83b1c:	e5931000 	ldr	r1, [r3]
a3f83b20:	e79a0002 	ldr	r0, [sl, r2]
a3f83b24:	ebfff7b1 	bl	a3f819f0 <printf>
a3f83b28:	ea000004 	b	a3f83b40 <DoReadFromReg+0x10c>
a3f83b2c:	e59f303c 	ldr	r3, [pc, #60]	; a3f83b70 <DoReadFromReg+0x13c>
a3f83b30:	e79a0003 	ldr	r0, [sl, r3]
a3f83b34:	ebfff7ad 	bl	a3f819f0 <printf>
a3f83b38:	e3e00000 	mvn	r0, #0	; 0x0
a3f83b3c:	e91bac30 	ldmdb	fp, {r4, r5, sl, fp, sp, pc}
a3f83b40:	e59f302c 	ldr	r3, [pc, #44]	; a3f83b74 <DoReadFromReg+0x140>
a3f83b44:	e79a0003 	ldr	r0, [sl, r3]
a3f83b48:	ebfff7a8 	bl	a3f819f0 <printf>
a3f83b4c:	e3a00001 	mov	r0, #1	; 0x1
a3f83b50:	e91bac30 	ldmdb	fp, {r4, r5, sl, fp, sp, pc}
a3f83b54:	ffffc5a8 	swinv	0x00ffc5a8
a3f83b58:	00004c8c 	andeq	r4, r0, ip, lsl #25
a3f83b5c:	00004c98 	muleq	r0, r8, ip
a3f83b60:	00004c9c 	muleq	r0, ip, ip
a3f83b64:	00004c80 	andeq	r4, r0, r0, lsl #25
a3f83b68:	00004ca0 	andeq	r4, r0, r0, lsr #25
a3f83b6c:	00004ca4 	andeq	r4, r0, r4, lsr #25
a3f83b70:	00004ca8 	andeq	r4, r0, r8, lsr #25
a3f83b74:	00004cac 	andeq	r4, r0, ip, lsr #25

a3f83b78 <DoWriteToReg>:
a3f83b78:	e1a0c00d 	mov	ip, sp
a3f83b7c:	e92ddc30 	stmdb	sp!, {r4, r5, sl, fp, ip, lr, pc}
a3f83b80:	e24cb004 	sub	fp, ip, #4	; 0x4
a3f83b84:	e3510003 	cmp	r1, #3	; 0x3
a3f83b88:	e3a05000 	mov	r5, #0	; 0x0
a3f83b8c:	e59fa104 	ldr	sl, [pc, #260]	; a3f83c98 <DoWriteToReg+0x120>
a3f83b90:	e1a04002 	mov	r4, r2
a3f83b94:	e08fa00a 	add	sl, pc, sl
a3f83b98:	e24dd00c 	sub	sp, sp, #12	; 0xc
a3f83b9c:	e50b5020 	str	r5, [fp, -#32]
a3f83ba0:	ca000003 	bgt	a3f83bb4 <DoWriteToReg+0x3c>
a3f83ba4:	e5900008 	ldr	r0, [r0, #8]
a3f83ba8:	ebfff790 	bl	a3f819f0 <printf>
a3f83bac:	e3a00000 	mov	r0, #0	; 0x0
a3f83bb0:	e91bac30 	ldmdb	fp, {r4, r5, sl, fp, sp, pc}
a3f83bb4:	e24b1020 	sub	r1, fp, #32	; 0x20
a3f83bb8:	e5940008 	ldr	r0, [r4, #8]
a3f83bbc:	e3a02020 	mov	r2, #32	; 0x20
a3f83bc0:	ebfff694 	bl	a3f81618 <HexToInt>
a3f83bc4:	e2505000 	subs	r5, r0, #0	; 0x0
a3f83bc8:	1a000004 	bne	a3f83be0 <DoWriteToReg+0x68>
a3f83bcc:	e59f30c8 	ldr	r3, [pc, #200]	; a3f83c9c <DoWriteToReg+0x124>
a3f83bd0:	e79a0003 	ldr	r0, [sl, r3]
a3f83bd4:	ebfff785 	bl	a3f819f0 <printf>
a3f83bd8:	e3a00000 	mov	r0, #0	; 0x0
a3f83bdc:	e91bac30 	ldmdb	fp, {r4, r5, sl, fp, sp, pc}
a3f83be0:	e5943004 	ldr	r3, [r4, #4]
a3f83be4:	e5d33000 	ldrb	r3, [r3]
a3f83be8:	e353006c 	cmp	r3, #108	; 0x6c
a3f83bec:	0a00001a 	beq	a3f83c5c <DoWriteToReg+0xe4>
a3f83bf0:	ca000002 	bgt	a3f83c00 <DoWriteToReg+0x88>
a3f83bf4:	e3530063 	cmp	r3, #99	; 0x63
a3f83bf8:	0a000003 	beq	a3f83c0c <DoWriteToReg+0x94>
a3f83bfc:	ea000021 	b	a3f83c88 <DoWriteToReg+0x110>
a3f83c00:	e3530073 	cmp	r3, #115	; 0x73
a3f83c04:	0a00000a 	beq	a3f83c34 <DoWriteToReg+0xbc>
a3f83c08:	ea00001e 	b	a3f83c88 <DoWriteToReg+0x110>
a3f83c0c:	e24b1019 	sub	r1, fp, #25	; 0x19
a3f83c10:	e594000c 	ldr	r0, [r4, #12]
a3f83c14:	e3a02008 	mov	r2, #8	; 0x8
a3f83c18:	ebfff67e 	bl	a3f81618 <HexToInt>
a3f83c1c:	e2504000 	subs	r4, r0, #0	; 0x0
a3f83c20:	0affffe9 	beq	a3f83bcc <DoWriteToReg+0x54>
a3f83c24:	e51b2020 	ldr	r2, [fp, -#32]
a3f83c28:	e55b3019 	ldrb	r3, [fp, -#25]
a3f83c2c:	e5c23000 	strb	r3, [r2]
a3f83c30:	ea000016 	b	a3f83c90 <DoWriteToReg+0x118>
a3f83c34:	e24b101c 	sub	r1, fp, #28	; 0x1c
a3f83c38:	e594000c 	ldr	r0, [r4, #12]
a3f83c3c:	e3a02010 	mov	r2, #16	; 0x10
a3f83c40:	ebfff674 	bl	a3f81618 <HexToInt>
a3f83c44:	e2504000 	subs	r4, r0, #0	; 0x0
a3f83c48:	0affffdf 	beq	a3f83bcc <DoWriteToReg+0x54>
a3f83c4c:	e51b2020 	ldr	r2, [fp, -#32]
a3f83c50:	e15b31bc 	ldrh	r3, [fp, -#28]
a3f83c54:	e1c230b0 	strh	r3, [r2]
a3f83c58:	ea00000c 	b	a3f83c90 <DoWriteToReg+0x118>
a3f83c5c:	e24b1024 	sub	r1, fp, #36	; 0x24
a3f83c60:	e594000c 	ldr	r0, [r4, #12]
a3f83c64:	e3a02020 	mov	r2, #32	; 0x20
a3f83c68:	ebfff66a 	bl	a3f81618 <HexToInt>
a3f83c6c:	e2504000 	subs	r4, r0, #0	; 0x0
a3f83c70:	059f3028 	ldreq	r3, [pc, #40]	; a3f83ca0 <DoWriteToReg+0x128>
a3f83c74:	0affffd5 	beq	a3f83bd0 <DoWriteToReg+0x58>
a3f83c78:	e51b2020 	ldr	r2, [fp, -#32]
a3f83c7c:	e51b3024 	ldr	r3, [fp, -#36]
a3f83c80:	e5823000 	str	r3, [r2]
a3f83c84:	ea000001 	b	a3f83c90 <DoWriteToReg+0x118>
a3f83c88:	e59f3014 	ldr	r3, [pc, #20]	; a3f83ca4 <DoWriteToReg+0x12c>
a3f83c8c:	eaffffcf 	b	a3f83bd0 <DoWriteToReg+0x58>
a3f83c90:	e3a00001 	mov	r0, #1	; 0x1
a3f83c94:	e91bac30 	ldmdb	fp, {r4, r5, sl, fp, sp, pc}
a3f83c98:	ffffc464 	swinv	0x00ffc464
a3f83c9c:	00004c8c 	andeq	r4, r0, ip, lsl #25
a3f83ca0:	00004cb0 	streqh	r4, [r0], -r0
a3f83ca4:	00004cb4 	streqh	r4, [r0], -r4

a3f83ca8 <DoDownload>:
a3f83ca8:	e1a0c00d 	mov	ip, sp
a3f83cac:	e92ddff0 	stmdb	sp!, {r4, r5, r6, r7, r8, r9, sl, fp, ip, lr, pc}
a3f83cb0:	e24cb004 	sub	fp, ip, #4	; 0x4
a3f83cb4:	e1a05002 	mov	r5, r2
a3f83cb8:	e1a07001 	mov	r7, r1
a3f83cbc:	e59fa1c4 	ldr	sl, [pc, #452]	; a3f83e88 <DoDownload+0x1e0>
a3f83cc0:	e59f41c4 	ldr	r4, [pc, #452]	; a3f83e8c <DoDownload+0x1e4>
a3f83cc4:	e08fa00a 	add	sl, pc, sl
a3f83cc8:	e79a1004 	ldr	r1, [sl, r4]
a3f83ccc:	e24dd00c 	sub	sp, sp, #12	; 0xc
a3f83cd0:	e50b0034 	str	r0, [fp, -#52]
a3f83cd4:	e5950004 	ldr	r0, [r5, #4]
a3f83cd8:	e3a03000 	mov	r3, #0	; 0x0
a3f83cdc:	e50b302c 	str	r3, [fp, -#44]
a3f83ce0:	e50b3030 	str	r3, [fp, -#48]
a3f83ce4:	ebfff635 	bl	a3f815c0 <StrCmp>
a3f83ce8:	e3500000 	cmp	r0, #0	; 0x0
a3f83cec:	e1a09004 	mov	r9, r4
a3f83cf0:	e59f4198 	ldr	r4, [pc, #408]	; a3f83e90 <DoDownload+0x1e8>
a3f83cf4:	e59f6198 	ldr	r6, [pc, #408]	; a3f83e94 <DoDownload+0x1ec>
a3f83cf8:	e59f8198 	ldr	r8, [pc, #408]	; a3f83e98 <DoDownload+0x1f0>
a3f83cfc:	0a00000e 	beq	a3f83d3c <DoDownload+0x94>
a3f83d00:	e5950004 	ldr	r0, [r5, #4]
a3f83d04:	e79a1004 	ldr	r1, [sl, r4]
a3f83d08:	ebfff62c 	bl	a3f815c0 <StrCmp>
a3f83d0c:	e3500000 	cmp	r0, #0	; 0x0
a3f83d10:	0a000009 	beq	a3f83d3c <DoDownload+0x94>
a3f83d14:	e5950004 	ldr	r0, [r5, #4]
a3f83d18:	e79a1006 	ldr	r1, [sl, r6]
a3f83d1c:	ebfff627 	bl	a3f815c0 <StrCmp>
a3f83d20:	e3500000 	cmp	r0, #0	; 0x0
a3f83d24:	0a000004 	beq	a3f83d3c <DoDownload+0x94>
a3f83d28:	e5950004 	ldr	r0, [r5, #4]
a3f83d2c:	e79a1008 	ldr	r1, [sl, r8]
a3f83d30:	ebfff622 	bl	a3f815c0 <StrCmp>
a3f83d34:	e3500000 	cmp	r0, #0	; 0x0
a3f83d38:	1a000024 	bne	a3f83dd0 <DoDownload+0x128>
a3f83d3c:	e5950004 	ldr	r0, [r5, #4]
a3f83d40:	e79a1004 	ldr	r1, [sl, r4]
a3f83d44:	ebfff61d 	bl	a3f815c0 <StrCmp>
a3f83d48:	e3500000 	cmp	r0, #0	; 0x0
a3f83d4c:	1a000003 	bne	a3f83d60 <DoDownload+0xb8>
a3f83d50:	e59f2144 	ldr	r2, [pc, #324]	; a3f83e9c <DoDownload+0x1f4>
a3f83d54:	e3a03602 	mov	r3, #2097152	; 0x200000
a3f83d58:	e50b3030 	str	r3, [fp, -#48]
a3f83d5c:	e50b202c 	str	r2, [fp, -#44]
a3f83d60:	e5950004 	ldr	r0, [r5, #4]
a3f83d64:	e79a1006 	ldr	r1, [sl, r6]
a3f83d68:	ebfff614 	bl	a3f815c0 <StrCmp>
a3f83d6c:	e3500000 	cmp	r0, #0	; 0x0
a3f83d70:	1a000003 	bne	a3f83d84 <DoDownload+0xdc>
a3f83d74:	e3a034a1 	mov	r3, #-1593835520	; 0xa1000000
a3f83d78:	e3a02832 	mov	r2, #3276800	; 0x320000
a3f83d7c:	e50b302c 	str	r3, [fp, -#44]
a3f83d80:	e50b2030 	str	r2, [fp, -#48]
a3f83d84:	e5950004 	ldr	r0, [r5, #4]
a3f83d88:	e79a1009 	ldr	r1, [sl, r9]
a3f83d8c:	ebfff60b 	bl	a3f815c0 <StrCmp>
a3f83d90:	e3500000 	cmp	r0, #0	; 0x0
a3f83d94:	1a000003 	bne	a3f83da8 <DoDownload+0x100>
a3f83d98:	e59f2100 	ldr	r2, [pc, #256]	; a3f83ea0 <DoDownload+0x1f8>
a3f83d9c:	e3a03701 	mov	r3, #262144	; 0x40000
a3f83da0:	e50b3030 	str	r3, [fp, -#48]
a3f83da4:	e50b202c 	str	r2, [fp, -#44]
a3f83da8:	e5950004 	ldr	r0, [r5, #4]
a3f83dac:	e79a1008 	ldr	r1, [sl, r8]
a3f83db0:	ebfff602 	bl	a3f815c0 <StrCmp>
a3f83db4:	e3500000 	cmp	r0, #0	; 0x0
a3f83db8:	1a000017 	bne	a3f83e1c <DoDownload+0x174>
a3f83dbc:	e59f20dc 	ldr	r2, [pc, #220]	; a3f83ea0 <DoDownload+0x1f8>
a3f83dc0:	e3a03701 	mov	r3, #262144	; 0x40000
a3f83dc4:	e50b3030 	str	r3, [fp, -#48]
a3f83dc8:	e50b202c 	str	r2, [fp, -#44]
a3f83dcc:	ea000012 	b	a3f83e1c <DoDownload+0x174>
a3f83dd0:	e3570002 	cmp	r7, #2	; 0x2
a3f83dd4:	da00000b 	ble	a3f83e08 <DoDownload+0x160>
a3f83dd8:	e24b102c 	sub	r1, fp, #44	; 0x2c
a3f83ddc:	e5950004 	ldr	r0, [r5, #4]
a3f83de0:	e3a02020 	mov	r2, #32	; 0x20
a3f83de4:	ebfff60b 	bl	a3f81618 <HexToInt>
a3f83de8:	e3500000 	cmp	r0, #0	; 0x0
a3f83dec:	0a000005 	beq	a3f83e08 <DoDownload+0x160>
a3f83df0:	e24b1030 	sub	r1, fp, #48	; 0x30
a3f83df4:	e5950008 	ldr	r0, [r5, #8]
a3f83df8:	e3a02020 	mov	r2, #32	; 0x20
a3f83dfc:	ebfff605 	bl	a3f81618 <HexToInt>
a3f83e00:	e3500000 	cmp	r0, #0	; 0x0
a3f83e04:	1a000004 	bne	a3f83e1c <DoDownload+0x174>
a3f83e08:	e51b3034 	ldr	r3, [fp, -#52]
a3f83e0c:	e5930008 	ldr	r0, [r3, #8]
a3f83e10:	ebfff6f6 	bl	a3f819f0 <printf>
a3f83e14:	e3a00000 	mov	r0, #0	; 0x0
a3f83e18:	e91baff0 	ldmdb	fp, {r4, r5, r6, r7, r8, r9, sl, fp, sp, pc}
a3f83e1c:	e59f3080 	ldr	r3, [pc, #128]	; a3f83ea4 <DoDownload+0x1fc>
a3f83e20:	e3a008e1 	mov	r0, #14745600	; 0xe10000
a3f83e24:	e79a2003 	ldr	r2, [sl, r3]
a3f83e28:	e59f3078 	ldr	r3, [pc, #120]	; a3f83ea8 <DoDownload+0x200>
a3f83e2c:	e5921004 	ldr	r1, [r2, #4]
a3f83e30:	e79a4003 	ldr	r4, [sl, r3]
a3f83e34:	e1a01201 	mov	r1, r1, lsl #4
a3f83e38:	eb0002ab 	bl	a3f848ec <__divsi3>
a3f83e3c:	e1a01000 	mov	r1, r0
a3f83e40:	e1a00004 	mov	r0, r4
a3f83e44:	ebfff6e9 	bl	a3f819f0 <printf>
a3f83e48:	e59f305c 	ldr	r3, [pc, #92]	; a3f83eac <DoDownload+0x204>
a3f83e4c:	e79a0003 	ldr	r0, [sl, r3]
a3f83e50:	ebfff6e6 	bl	a3f819f0 <printf>
a3f83e54:	e51b002c 	ldr	r0, [fp, -#44]
a3f83e58:	e51b1030 	ldr	r1, [fp, -#48]
a3f83e5c:	eb000015 	bl	a3f83eb8 <UUDecode>
a3f83e60:	e59f3048 	ldr	r3, [pc, #72]	; a3f83eb0 <DoDownload+0x208>
a3f83e64:	e1a01000 	mov	r1, r0
a3f83e68:	e79a0003 	ldr	r0, [sl, r3]
a3f83e6c:	e1a02001 	mov	r2, r1
a3f83e70:	ebfff6de 	bl	a3f819f0 <printf>
a3f83e74:	e59f3038 	ldr	r3, [pc, #56]	; a3f83eb4 <DoDownload+0x20c>
a3f83e78:	e79a0003 	ldr	r0, [sl, r3]
a3f83e7c:	ebfff6db 	bl	a3f819f0 <printf>
a3f83e80:	e3a00001 	mov	r0, #1	; 0x1
a3f83e84:	e91baff0 	ldmdb	fp, {r4, r5, r6, r7, r8, r9, sl, fp, sp, pc}
a3f83e88:	ffffc334 	swinv	0x00ffc334
a3f83e8c:	00004cb8 	streqh	r4, [r0], -r8
a3f83e90:	00004cbc 	streqh	r4, [r0], -ip
a3f83e94:	00004cc0 	andeq	r4, r0, r0, asr #25
a3f83e98:	00004cc4 	andeq	r4, r0, r4, asr #25
a3f83e9c:	a0008000 	andge	r8, r0, r0
a3f83ea0:	a1ff0000 	mvnges	r0, r0
a3f83ea4:	00004b98 	muleq	r0, r8, fp
a3f83ea8:	00004cc8 	andeq	r4, r0, r8, asr #25
a3f83eac:	00004ccc 	andeq	r4, r0, ip, asr #25
a3f83eb0:	00004cd0 	ldreqd	r4, [r0], -r0
a3f83eb4:	00004cd4 	ldreqd	r4, [r0], -r4

a3f83eb8 <UUDecode>:
a3f83eb8:	e1a0c00d 	mov	ip, sp
a3f83ebc:	e92ddff0 	stmdb	sp!, {r4, r5, r6, r7, r8, r9, sl, fp, ip, lr, pc}
a3f83ec0:	e24cb004 	sub	fp, ip, #4	; 0x4
a3f83ec4:	e1a07000 	mov	r7, r0
a3f83ec8:	e1a06001 	mov	r6, r1
a3f83ecc:	e3a04000 	mov	r4, #0	; 0x0
a3f83ed0:	e1a05004 	mov	r5, r4
a3f83ed4:	e24b80a8 	sub	r8, fp, #168	; 0xa8
a3f83ed8:	e59fa338 	ldr	sl, [pc, #824]	; a3f84218 <UUDecode+0x360>
a3f83edc:	e59f9338 	ldr	r9, [pc, #824]	; a3f8421c <UUDecode+0x364>
a3f83ee0:	e59f2338 	ldr	r2, [pc, #824]	; a3f84220 <UUDecode+0x368>
a3f83ee4:	e08fa00a 	add	sl, pc, sl
a3f83ee8:	e24dd088 	sub	sp, sp, #136	; 0x88
a3f83eec:	e50b40ac 	str	r4, [fp, -#172]
a3f83ef0:	e50b20b0 	str	r2, [fp, -#176]
a3f83ef4:	e1a00008 	mov	r0, r8
a3f83ef8:	e3a01080 	mov	r1, #128	; 0x80
a3f83efc:	e1a02001 	mov	r2, r1
a3f83f00:	eb0000cd 	bl	a3f8423c <SerialInputString>
a3f83f04:	e1a03005 	mov	r3, r5
a3f83f08:	e2855001 	add	r5, r5, #1	; 0x1
a3f83f0c:	e353000a 	cmp	r3, #10	; 0xa
a3f83f10:	da000003 	ble	a3f83f24 <UUDecode+0x6c>
a3f83f14:	e79a0009 	ldr	r0, [sl, r9]
a3f83f18:	ebfff6b4 	bl	a3f819f0 <printf>
a3f83f1c:	e3e00000 	mvn	r0, #0	; 0x0
a3f83f20:	e91baff0 	ldmdb	fp, {r4, r5, r6, r7, r8, r9, sl, fp, sp, pc}
a3f83f24:	e51b30b0 	ldr	r3, [fp, -#176]
a3f83f28:	e1a00008 	mov	r0, r8
a3f83f2c:	e79a1003 	ldr	r1, [sl, r3]
a3f83f30:	e3a02006 	mov	r2, #6	; 0x6
a3f83f34:	ebfff58d 	bl	a3f81570 <StrNCmp>
a3f83f38:	e3500000 	cmp	r0, #0	; 0x0
a3f83f3c:	1affffec 	bne	a3f83ef4 <UUDecode+0x3c>
a3f83f40:	ea000088 	b	a3f84168 <UUDecode+0x2b0>
a3f83f44:	e24b10a7 	sub	r1, fp, #167	; 0xa7
a3f83f48:	e59fe2d4 	ldr	lr, [pc, #724]	; a3f84224 <UUDecode+0x36c>
a3f83f4c:	e59f52d4 	ldr	r5, [pc, #724]	; a3f84228 <UUDecode+0x370>
a3f83f50:	e35c0002 	cmp	ip, #2	; 0x2
a3f83f54:	da00002f 	ble	a3f84018 <UUDecode+0x160>
a3f83f58:	e5d12000 	ldrb	r2, [r1]
a3f83f5c:	e2423020 	sub	r3, r2, #32	; 0x20
a3f83f60:	e3530040 	cmp	r3, #64	; 0x40
a3f83f64:	8a00000b 	bhi	a3f83f98 <UUDecode+0xe0>
a3f83f68:	e5d13001 	ldrb	r3, [r1, #1]
a3f83f6c:	e2433020 	sub	r3, r3, #32	; 0x20
a3f83f70:	e3530040 	cmp	r3, #64	; 0x40
a3f83f74:	8a000007 	bhi	a3f83f98 <UUDecode+0xe0>
a3f83f78:	e5d13002 	ldrb	r3, [r1, #2]
a3f83f7c:	e2433020 	sub	r3, r3, #32	; 0x20
a3f83f80:	e3530040 	cmp	r3, #64	; 0x40
a3f83f84:	8a000003 	bhi	a3f83f98 <UUDecode+0xe0>
a3f83f88:	e5d13003 	ldrb	r3, [r1, #3]
a3f83f8c:	e2433020 	sub	r3, r3, #32	; 0x20
a3f83f90:	e3530040 	cmp	r3, #64	; 0x40
a3f83f94:	9a000005 	bls	a3f83fb0 <UUDecode+0xf8>
a3f83f98:	e79a000e 	ldr	r0, [sl, lr]
a3f83f9c:	ebfff693 	bl	a3f819f0 <printf>
a3f83fa0:	e1a00008 	mov	r0, r8
a3f83fa4:	ebfff691 	bl	a3f819f0 <printf>
a3f83fa8:	e79a0005 	ldr	r0, [sl, r5]
a3f83fac:	eaffffd9 	b	a3f83f18 <UUDecode+0x60>
a3f83fb0:	e2422020 	sub	r2, r2, #32	; 0x20
a3f83fb4:	e5d13001 	ldrb	r3, [r1, #1]
a3f83fb8:	e202203f 	and	r2, r2, #63	; 0x3f
a3f83fbc:	e2433020 	sub	r3, r3, #32	; 0x20
a3f83fc0:	e203303f 	and	r3, r3, #63	; 0x3f
a3f83fc4:	e1a03243 	mov	r3, r3, asr #4
a3f83fc8:	e1832102 	orr	r2, r3, r2, lsl #2
a3f83fcc:	e1540006 	cmp	r4, r6
a3f83fd0:	b7c72004 	strltb	r2, [r7, r4]
a3f83fd4:	b2844001 	addlt	r4, r4, #1	; 0x1
a3f83fd8:	e5d12001 	ldrb	r2, [r1, #1]
a3f83fdc:	e5d13002 	ldrb	r3, [r1, #2]
a3f83fe0:	e2422020 	sub	r2, r2, #32	; 0x20
a3f83fe4:	e202203f 	and	r2, r2, #63	; 0x3f
a3f83fe8:	e2433020 	sub	r3, r3, #32	; 0x20
a3f83fec:	e203303f 	and	r3, r3, #63	; 0x3f
a3f83ff0:	e1a03143 	mov	r3, r3, asr #2
a3f83ff4:	e1833202 	orr	r3, r3, r2, lsl #4
a3f83ff8:	e20320ff 	and	r2, r3, #255	; 0xff
a3f83ffc:	e1540006 	cmp	r4, r6
a3f84000:	b7c72004 	strltb	r2, [r7, r4]
a3f84004:	b2844001 	addlt	r4, r4, #1	; 0x1
a3f84008:	e5d12002 	ldrb	r2, [r1, #2]
a3f8400c:	e5d13003 	ldrb	r3, [r1, #3]
a3f84010:	e2422020 	sub	r2, r2, #32	; 0x20
a3f84014:	ea000047 	b	a3f84138 <UUDecode+0x280>
a3f84018:	e35c0000 	cmp	ip, #0	; 0x0
a3f8401c:	da000017 	ble	a3f84080 <UUDecode+0x1c8>
a3f84020:	e5d12000 	ldrb	r2, [r1]
a3f84024:	e2423020 	sub	r3, r2, #32	; 0x20
a3f84028:	e3530040 	cmp	r3, #64	; 0x40
a3f8402c:	8a000003 	bhi	a3f84040 <UUDecode+0x188>
a3f84030:	e5d13001 	ldrb	r3, [r1, #1]
a3f84034:	e2433020 	sub	r3, r3, #32	; 0x20
a3f84038:	e3530040 	cmp	r3, #64	; 0x40
a3f8403c:	9a000005 	bls	a3f84058 <UUDecode+0x1a0>
a3f84040:	e79a000e 	ldr	r0, [sl, lr]
a3f84044:	ebfff669 	bl	a3f819f0 <printf>
a3f84048:	e1a00008 	mov	r0, r8
a3f8404c:	ebfff667 	bl	a3f819f0 <printf>
a3f84050:	e79a0005 	ldr	r0, [sl, r5]
a3f84054:	eaffffaf 	b	a3f83f18 <UUDecode+0x60>
a3f84058:	e2422020 	sub	r2, r2, #32	; 0x20
a3f8405c:	e5d13001 	ldrb	r3, [r1, #1]
a3f84060:	e202203f 	and	r2, r2, #63	; 0x3f
a3f84064:	e2433020 	sub	r3, r3, #32	; 0x20
a3f84068:	e203303f 	and	r3, r3, #63	; 0x3f
a3f8406c:	e1a03243 	mov	r3, r3, asr #4
a3f84070:	e1832102 	orr	r2, r3, r2, lsl #2
a3f84074:	e1540006 	cmp	r4, r6
a3f84078:	b7c72004 	strltb	r2, [r7, r4]
a3f8407c:	b2844001 	addlt	r4, r4, #1	; 0x1
a3f84080:	e35c0001 	cmp	ip, #1	; 0x1
a3f84084:	da000018 	ble	a3f840ec <UUDecode+0x234>
a3f84088:	e5d12001 	ldrb	r2, [r1, #1]
a3f8408c:	e2423020 	sub	r3, r2, #32	; 0x20
a3f84090:	e3530040 	cmp	r3, #64	; 0x40
a3f84094:	8a000003 	bhi	a3f840a8 <UUDecode+0x1f0>
a3f84098:	e5d13002 	ldrb	r3, [r1, #2]
a3f8409c:	e2433020 	sub	r3, r3, #32	; 0x20
a3f840a0:	e3530040 	cmp	r3, #64	; 0x40
a3f840a4:	9a000005 	bls	a3f840c0 <UUDecode+0x208>
a3f840a8:	e79a000e 	ldr	r0, [sl, lr]
a3f840ac:	ebfff64f 	bl	a3f819f0 <printf>
a3f840b0:	e1a00008 	mov	r0, r8
a3f840b4:	ebfff64d 	bl	a3f819f0 <printf>
a3f840b8:	e79a0005 	ldr	r0, [sl, r5]
a3f840bc:	eaffff95 	b	a3f83f18 <UUDecode+0x60>
a3f840c0:	e2422020 	sub	r2, r2, #32	; 0x20
a3f840c4:	e5d13002 	ldrb	r3, [r1, #2]
a3f840c8:	e202203f 	and	r2, r2, #63	; 0x3f
a3f840cc:	e2433020 	sub	r3, r3, #32	; 0x20
a3f840d0:	e203303f 	and	r3, r3, #63	; 0x3f
a3f840d4:	e1a03143 	mov	r3, r3, asr #2
a3f840d8:	e1833202 	orr	r3, r3, r2, lsl #4
a3f840dc:	e20320ff 	and	r2, r3, #255	; 0xff
a3f840e0:	e1540006 	cmp	r4, r6
a3f840e4:	b7c72004 	strltb	r2, [r7, r4]
a3f840e8:	b2844001 	addlt	r4, r4, #1	; 0x1
a3f840ec:	e35c0002 	cmp	ip, #2	; 0x2
a3f840f0:	da000018 	ble	a3f84158 <UUDecode+0x2a0>
a3f840f4:	e5d12002 	ldrb	r2, [r1, #2]
a3f840f8:	e2423020 	sub	r3, r2, #32	; 0x20
a3f840fc:	e3530040 	cmp	r3, #64	; 0x40
a3f84100:	e1a00002 	mov	r0, r2
a3f84104:	8a000004 	bhi	a3f8411c <UUDecode+0x264>
a3f84108:	e5d12003 	ldrb	r2, [r1, #3]
a3f8410c:	e2423020 	sub	r3, r2, #32	; 0x20
a3f84110:	e3530040 	cmp	r3, #64	; 0x40
a3f84114:	e1a03002 	mov	r3, r2
a3f84118:	9a000005 	bls	a3f84134 <UUDecode+0x27c>
a3f8411c:	e79a000e 	ldr	r0, [sl, lr]
a3f84120:	ebfff632 	bl	a3f819f0 <printf>
a3f84124:	e1a00008 	mov	r0, r8
a3f84128:	ebfff630 	bl	a3f819f0 <printf>
a3f8412c:	e79a0005 	ldr	r0, [sl, r5]
a3f84130:	eaffff78 	b	a3f83f18 <UUDecode+0x60>
a3f84134:	e2402020 	sub	r2, r0, #32	; 0x20
a3f84138:	e202203f 	and	r2, r2, #63	; 0x3f
a3f8413c:	e2433020 	sub	r3, r3, #32	; 0x20
a3f84140:	e203303f 	and	r3, r3, #63	; 0x3f
a3f84144:	e1833302 	orr	r3, r3, r2, lsl #6
a3f84148:	e20320ff 	and	r2, r3, #255	; 0xff
a3f8414c:	e1540006 	cmp	r4, r6
a3f84150:	b7c72004 	strltb	r2, [r7, r4]
a3f84154:	b2844001 	addlt	r4, r4, #1	; 0x1
a3f84158:	e2811004 	add	r1, r1, #4	; 0x4
a3f8415c:	e24cc003 	sub	ip, ip, #3	; 0x3
a3f84160:	e35c0000 	cmp	ip, #0	; 0x0
a3f84164:	caffff79 	bgt	a3f83f50 <UUDecode+0x98>
a3f84168:	e1a00008 	mov	r0, r8
a3f8416c:	e3a01080 	mov	r1, #128	; 0x80
a3f84170:	e3a02002 	mov	r2, #2	; 0x2
a3f84174:	eb000030 	bl	a3f8423c <SerialInputString>
a3f84178:	e3500000 	cmp	r0, #0	; 0x0
a3f8417c:	0a000020 	beq	a3f84204 <UUDecode+0x34c>
a3f84180:	e51b20ac 	ldr	r2, [fp, -#172]
a3f84184:	e202307f 	and	r3, r2, #127	; 0x7f
a3f84188:	e2822001 	add	r2, r2, #1	; 0x1
a3f8418c:	e3530000 	cmp	r3, #0	; 0x0
a3f84190:	e50b20ac 	str	r2, [fp, -#172]
a3f84194:	1a000002 	bne	a3f841a4 <UUDecode+0x2ec>
a3f84198:	e59f308c 	ldr	r3, [pc, #140]	; a3f8422c <UUDecode+0x374>
a3f8419c:	e79a0003 	ldr	r0, [sl, r3]
a3f841a0:	ebfff612 	bl	a3f819f0 <printf>
a3f841a4:	e55b30a8 	ldrb	r3, [fp, -#168]
a3f841a8:	e2433020 	sub	r3, r3, #32	; 0x20
a3f841ac:	e203c03f 	and	ip, r3, #63	; 0x3f
a3f841b0:	e35c0000 	cmp	ip, #0	; 0x0
a3f841b4:	caffff62 	bgt	a3f83f44 <UUDecode+0x8c>
a3f841b8:	e59f3064 	ldr	r3, [pc, #100]	; a3f84224 <UUDecode+0x36c>
a3f841bc:	e79a0003 	ldr	r0, [sl, r3]
a3f841c0:	ebfff60a 	bl	a3f819f0 <printf>
a3f841c4:	e1a00008 	mov	r0, r8
a3f841c8:	e3a01080 	mov	r1, #128	; 0x80
a3f841cc:	e3a02002 	mov	r2, #2	; 0x2
a3f841d0:	eb000019 	bl	a3f8423c <SerialInputString>
a3f841d4:	e3500000 	cmp	r0, #0	; 0x0
a3f841d8:	0a000006 	beq	a3f841f8 <UUDecode+0x340>
a3f841dc:	e59f304c 	ldr	r3, [pc, #76]	; a3f84230 <UUDecode+0x378>
a3f841e0:	e1a00008 	mov	r0, r8
a3f841e4:	e79a1003 	ldr	r1, [sl, r3]
a3f841e8:	e3a02003 	mov	r2, #3	; 0x3
a3f841ec:	ebfff4df 	bl	a3f81570 <StrNCmp>
a3f841f0:	e3500000 	cmp	r0, #0	; 0x0
a3f841f4:	0a000005 	beq	a3f84210 <UUDecode+0x358>
a3f841f8:	e59f3034 	ldr	r3, [pc, #52]	; a3f84234 <UUDecode+0x37c>
a3f841fc:	e79a0003 	ldr	r0, [sl, r3]
a3f84200:	eaffff44 	b	a3f83f18 <UUDecode+0x60>
a3f84204:	e59f302c 	ldr	r3, [pc, #44]	; a3f84238 <UUDecode+0x380>
a3f84208:	e79a0003 	ldr	r0, [sl, r3]
a3f8420c:	eaffff41 	b	a3f83f18 <UUDecode+0x60>
a3f84210:	e1a00004 	mov	r0, r4
a3f84214:	e91baff0 	ldmdb	fp, {r4, r5, r6, r7, r8, r9, sl, fp, sp, pc}
a3f84218:	ffffc114 	swinv	0x00ffc114
a3f8421c:	00004cd8 	ldreqd	r4, [r0], -r8
a3f84220:	00004cdc 	ldreqd	r4, [r0], -ip
a3f84224:	00004cd4 	ldreqd	r4, [r0], -r4
a3f84228:	00004ce0 	andeq	r4, r0, r0, ror #25
a3f8422c:	00004ce4 	andeq	r4, r0, r4, ror #25
a3f84230:	00004ce8 	andeq	r4, r0, r8, ror #25
a3f84234:	00004cec 	andeq	r4, r0, ip, ror #25
a3f84238:	00004cf0 	streqd	r4, [r0], -r0

a3f8423c <SerialInputString>:
a3f8423c:	e1a0c00d 	mov	ip, sp
a3f84240:	e92ddbf0 	stmdb	sp!, {r4, r5, r6, r7, r8, r9, fp, ip, lr, pc}
a3f84244:	e24cb004 	sub	fp, ip, #4	; 0x4
a3f84248:	e1a06000 	mov	r6, r0
a3f8424c:	e1a04002 	mov	r4, r2
a3f84250:	e24dd008 	sub	sp, sp, #8	; 0x8
a3f84254:	e50b102c 	str	r1, [fp, -#44]
a3f84258:	ebfffcfd 	bl	a3f83654 <GetTime>
a3f8425c:	e3a05000 	mov	r5, #0	; 0x0
a3f84260:	e1a07005 	mov	r7, r5
a3f84264:	e51b202c 	ldr	r2, [fp, -#44]
a3f84268:	e0809004 	add	r9, r0, r4
a3f8426c:	e2423001 	sub	r3, r2, #1	; 0x1
a3f84270:	e1550003 	cmp	r5, r3
a3f84274:	aa00001f 	bge	a3f842f8 <SerialInputString+0xbc>
a3f84278:	e24b8025 	sub	r8, fp, #37	; 0x25
a3f8427c:	ea000005 	b	a3f84298 <SerialInputString+0x5c>
a3f84280:	ebfffcf3 	bl	a3f83654 <GetTime>
a3f84284:	e1500009 	cmp	r0, r9
a3f84288:	9a000002 	bls	a3f84298 <SerialInputString+0x5c>
a3f8428c:	e1a00005 	mov	r0, r5
a3f84290:	e7c64007 	strb	r4, [r6, r7]
a3f84294:	e91babf0 	ldmdb	fp, {r4, r5, r6, r7, r8, r9, fp, sp, pc}
a3f84298:	e1a00008 	mov	r0, r8
a3f8429c:	ebfffaff 	bl	a3f82ea0 <SerialInputByte>
a3f842a0:	e2504000 	subs	r4, r0, #0	; 0x0
a3f842a4:	0afffff5 	beq	a3f84280 <SerialInputString+0x44>
a3f842a8:	e3550000 	cmp	r5, #0	; 0x0
a3f842ac:	e55b3025 	ldrb	r3, [fp, -#37]
a3f842b0:	1a000002 	bne	a3f842c0 <SerialInputString+0x84>
a3f842b4:	e353000d 	cmp	r3, #13	; 0xd
a3f842b8:	1353000a 	cmpne	r3, #10	; 0xa
a3f842bc:	0a000009 	beq	a3f842e8 <SerialInputString+0xac>
a3f842c0:	e353000a 	cmp	r3, #10	; 0xa
a3f842c4:	1353000d 	cmpne	r3, #13	; 0xd
a3f842c8:	1a000003 	bne	a3f842dc <SerialInputString+0xa0>
a3f842cc:	e1a00005 	mov	r0, r5
a3f842d0:	e3a03000 	mov	r3, #0	; 0x0
a3f842d4:	e7c63007 	strb	r3, [r6, r7]
a3f842d8:	e91babf0 	ldmdb	fp, {r4, r5, r6, r7, r8, r9, fp, sp, pc}
a3f842dc:	e7c63007 	strb	r3, [r6, r7]
a3f842e0:	e2877001 	add	r7, r7, #1	; 0x1
a3f842e4:	e2855001 	add	r5, r5, #1	; 0x1
a3f842e8:	e51b202c 	ldr	r2, [fp, -#44]
a3f842ec:	e2423001 	sub	r3, r2, #1	; 0x1
a3f842f0:	e1550003 	cmp	r5, r3
a3f842f4:	baffffe7 	blt	a3f84298 <SerialInputString+0x5c>
a3f842f8:	e1a00005 	mov	r0, r5
a3f842fc:	e91babf0 	ldmdb	fp, {r4, r5, r6, r7, r8, r9, fp, sp, pc}

a3f84300 <SerialPutChar>:
a3f84300:	e20000ff 	and	r0, r0, #255	; 0xff
a3f84304:	e59f2014 	ldr	r2, [pc, #20]	; a3f84320 <SerialPutChar+0x20>
a3f84308:	e5923000 	ldr	r3, [r2]
a3f8430c:	e3130020 	tst	r3, #32	; 0x20
a3f84310:	0afffffc 	beq	a3f84308 <SerialPutChar+0x8>
a3f84314:	e59f3008 	ldr	r3, [pc, #8]	; a3f84324 <SerialPutChar+0x24>
a3f84318:	e5830000 	str	r0, [r3]
a3f8431c:	e1a0f00e 	mov	pc, lr
a3f84320:	40100014 	andmis	r0, r0, r4, lsl r0
a3f84324:	40100000 	andmis	r0, r0, r0

a3f84328 <SerialInPutflush>:
a3f84328:	e24dd004 	sub	sp, sp, #4	; 0x4
a3f8432c:	e59f300c 	ldr	r3, [pc, #12]	; a3f84340 <SerialInPutflush+0x18>
a3f84330:	e5932000 	ldr	r2, [r3]
a3f84334:	e3a00000 	mov	r0, #0	; 0x0
a3f84338:	e58d2000 	str	r2, [sp]
a3f8433c:	ea000000 	b	a3f84344 <SerialInPutflush+0x1c>
a3f84340:	40100000 	andmis	r0, r0, r0
a3f84344:	e28dd004 	add	sp, sp, #4	; 0x4
a3f84348:	e1a0f00e 	mov	pc, lr

a3f8434c <SerialInputChar>:
a3f8434c:	e59f201c 	ldr	r2, [pc, #28]	; a3f84370 <SerialInputChar+0x24>
a3f84350:	e5923000 	ldr	r3, [r2]
a3f84354:	e3130001 	tst	r3, #1	; 0x1
a3f84358:	0afffffc 	beq	a3f84350 <SerialInputChar+0x4>
a3f8435c:	e59f3010 	ldr	r3, [pc, #16]	; a3f84374 <SerialInputChar+0x28>
a3f84360:	e5932000 	ldr	r2, [r3]
a3f84364:	e5c02000 	strb	r2, [r0]
a3f84368:	e3a00001 	mov	r0, #1	; 0x1
a3f8436c:	e1a0f00e 	mov	pc, lr
a3f84370:	40100014 	andmis	r0, r0, r4, lsl r0
a3f84374:	40100000 	andmis	r0, r0, r0

a3f84378 <Serialtstc>:
a3f84378:	e59f3008 	ldr	r3, [pc, #8]	; a3f84388 <Serialtstc+0x10>
a3f8437c:	e5930000 	ldr	r0, [r3]
a3f84380:	e2000001 	and	r0, r0, #1	; 0x1
a3f84384:	e1a0f00e 	mov	pc, lr
a3f84388:	40100014 	andmis	r0, r0, r4, lsl r0

a3f8438c <ReadByteWithTimeout>:
a3f8438c:	e1a0c00d 	mov	ip, sp
a3f84390:	e92dd800 	stmdb	sp!, {fp, ip, lr, pc}
a3f84394:	e24cb004 	sub	fp, ip, #4	; 0x4
a3f84398:	e1a02000 	mov	r2, r0
a3f8439c:	e24b000d 	sub	r0, fp, #13	; 0xd
a3f843a0:	e3a01001 	mov	r1, #1	; 0x1
a3f843a4:	e24dd004 	sub	sp, sp, #4	; 0x4
a3f843a8:	eb00012e 	bl	a3f84868 <SerialInputBlock>
a3f843ac:	e3500001 	cmp	r0, #1	; 0x1
a3f843b0:	0a000001 	beq	a3f843bc <ReadByteWithTimeout+0x30>
a3f843b4:	e3e00000 	mvn	r0, #0	; 0x0
a3f843b8:	e91ba800 	ldmdb	fp, {fp, sp, pc}
a3f843bc:	e55b000d 	ldrb	r0, [fp, -#13]
a3f843c0:	e91ba800 	ldmdb	fp, {fp, sp, pc}

a3f843c4 <XModemReceive>:
a3f843c4:	e1a0c00d 	mov	ip, sp
a3f843c8:	e92ddff0 	stmdb	sp!, {r4, r5, r6, r7, r8, r9, sl, fp, ip, lr, pc}
a3f843cc:	e24cb004 	sub	fp, ip, #4	; 0x4
a3f843d0:	e3a02001 	mov	r2, #1	; 0x1
a3f843d4:	e59fa2e8 	ldr	sl, [pc, #744]	; a3f846c4 <XModemReceive+0x300>
a3f843d8:	e3a03043 	mov	r3, #67	; 0x43
a3f843dc:	e08fa00a 	add	sl, pc, sl
a3f843e0:	e24dd024 	sub	sp, sp, #36	; 0x24
a3f843e4:	e50b002c 	str	r0, [fp, -#44]
a3f843e8:	e3a00000 	mov	r0, #0	; 0x0
a3f843ec:	e50b0034 	str	r0, [fp, -#52]
a3f843f0:	e50b2038 	str	r2, [fp, -#56]
a3f843f4:	e50b003c 	str	r0, [fp, -#60]
a3f843f8:	e50b2040 	str	r2, [fp, -#64]
a3f843fc:	e50b3044 	str	r3, [fp, -#68]
a3f84400:	e50b1030 	str	r1, [fp, -#48]
a3f84404:	ebffffc7 	bl	a3f84328 <SerialInPutflush>
a3f84408:	e59f32b8 	ldr	r3, [pc, #696]	; a3f846c8 <XModemReceive+0x304>
a3f8440c:	e79a0003 	ldr	r0, [sl, r3]
a3f84410:	ebfff576 	bl	a3f819f0 <printf>
a3f84414:	e51b0044 	ldr	r0, [fp, -#68]
a3f84418:	e59f92ac 	ldr	r9, [pc, #684]	; a3f846cc <XModemReceive+0x308>
a3f8441c:	ebffffb7 	bl	a3f84300 <SerialPutChar>
a3f84420:	e3a08000 	mov	r8, #0	; 0x0
a3f84424:	e3a0000a 	mov	r0, #10	; 0xa
a3f84428:	e50b8048 	str	r8, [fp, -#72]
a3f8442c:	e50b804c 	str	r8, [fp, -#76]
a3f84430:	ebffffd5 	bl	a3f8438c <ReadByteWithTimeout>
a3f84434:	e2504000 	subs	r4, r0, #0	; 0x0
a3f84438:	ba000081 	blt	a3f84644 <XModemReceive+0x280>
a3f8443c:	e3a00015 	mov	r0, #21	; 0x15
a3f84440:	e3540001 	cmp	r4, #1	; 0x1
a3f84444:	e50b0044 	str	r0, [fp, -#68]
a3f84448:	ba00007d 	blt	a3f84644 <XModemReceive+0x280>
a3f8444c:	e3540002 	cmp	r4, #2	; 0x2
a3f84450:	da000004 	ble	a3f84468 <XModemReceive+0xa4>
a3f84454:	e3540004 	cmp	r4, #4	; 0x4
a3f84458:	1a000079 	bne	a3f84644 <XModemReceive+0x280>
a3f8445c:	e240000f 	sub	r0, r0, #15	; 0xf
a3f84460:	ebffffa6 	bl	a3f84300 <SerialPutChar>
a3f84464:	ea000094 	b	a3f846bc <XModemReceive+0x2f8>
a3f84468:	e3a0000a 	mov	r0, #10	; 0xa
a3f8446c:	ebffffc6 	bl	a3f8438c <ReadByteWithTimeout>
a3f84470:	e2507000 	subs	r7, r0, #0	; 0x0
a3f84474:	ba000072 	blt	a3f84644 <XModemReceive+0x280>
a3f84478:	e3a0000a 	mov	r0, #10	; 0xa
a3f8447c:	ebffffc2 	bl	a3f8438c <ReadByteWithTimeout>
a3f84480:	e3500000 	cmp	r0, #0	; 0x0
a3f84484:	ba00006e 	blt	a3f84644 <XModemReceive+0x280>
a3f84488:	e26030ff 	rsb	r3, r0, #255	; 0xff
a3f8448c:	e1570003 	cmp	r7, r3
a3f84490:	1a00006b 	bne	a3f84644 <XModemReceive+0x280>
a3f84494:	e3540001 	cmp	r4, #1	; 0x1
a3f84498:	13a05b01 	movne	r5, #1024	; 0x400
a3f8449c:	03a05080 	moveq	r5, #128	; 0x80
a3f844a0:	e1a04008 	mov	r4, r8
a3f844a4:	e1580005 	cmp	r8, r5
a3f844a8:	aa000008 	bge	a3f844d0 <XModemReceive+0x10c>
a3f844ac:	e79a6009 	ldr	r6, [sl, r9]
a3f844b0:	e3a0000a 	mov	r0, #10	; 0xa
a3f844b4:	ebffffb4 	bl	a3f8438c <ReadByteWithTimeout>
a3f844b8:	e3500000 	cmp	r0, #0	; 0x0
a3f844bc:	ba000060 	blt	a3f84644 <XModemReceive+0x280>
a3f844c0:	e7c60004 	strb	r0, [r6, r4]
a3f844c4:	e2844001 	add	r4, r4, #1	; 0x1
a3f844c8:	e1540005 	cmp	r4, r5
a3f844cc:	bafffff7 	blt	a3f844b0 <XModemReceive+0xec>
a3f844d0:	e51b1040 	ldr	r1, [fp, -#64]
a3f844d4:	e3510000 	cmp	r1, #0	; 0x0
a3f844d8:	0a000009 	beq	a3f84504 <XModemReceive+0x140>
a3f844dc:	e3a0000a 	mov	r0, #10	; 0xa
a3f844e0:	ebffffa9 	bl	a3f8438c <ReadByteWithTimeout>
a3f844e4:	e3500000 	cmp	r0, #0	; 0x0
a3f844e8:	e50b0048 	str	r0, [fp, -#72]
a3f844ec:	ba000054 	blt	a3f84644 <XModemReceive+0x280>
a3f844f0:	e3a0000a 	mov	r0, #10	; 0xa
a3f844f4:	ebffffa4 	bl	a3f8438c <ReadByteWithTimeout>
a3f844f8:	e3500000 	cmp	r0, #0	; 0x0
a3f844fc:	e50b004c 	str	r0, [fp, -#76]
a3f84500:	ea000002 	b	a3f84510 <XModemReceive+0x14c>
a3f84504:	e3a0000a 	mov	r0, #10	; 0xa
a3f84508:	ebffff9f 	bl	a3f8438c <ReadByteWithTimeout>
a3f8450c:	e2508000 	subs	r8, r0, #0	; 0x0
a3f84510:	ba00004b 	blt	a3f84644 <XModemReceive+0x280>
a3f84514:	e51b2038 	ldr	r2, [fp, -#56]
a3f84518:	e2423001 	sub	r3, r2, #1	; 0x1
a3f8451c:	e20330ff 	and	r3, r3, #255	; 0xff
a3f84520:	e1570003 	cmp	r7, r3
a3f84524:	0a000041 	beq	a3f84630 <XModemReceive+0x26c>
a3f84528:	e20230ff 	and	r3, r2, #255	; 0xff
a3f8452c:	e1570003 	cmp	r7, r3
a3f84530:	1a000043 	bne	a3f84644 <XModemReceive+0x280>
a3f84534:	e51b3040 	ldr	r3, [fp, -#64]
a3f84538:	e3530000 	cmp	r3, #0	; 0x0
a3f8453c:	0a00001a 	beq	a3f845ac <XModemReceive+0x1e8>
a3f84540:	e3a02000 	mov	r2, #0	; 0x0
a3f84544:	e1a03002 	mov	r3, r2
a3f84548:	e1520005 	cmp	r2, r5
a3f8454c:	aa00000d 	bge	a3f84588 <XModemReceive+0x1c4>
a3f84550:	e79ae009 	ldr	lr, [sl, r9]
a3f84554:	e59fc174 	ldr	ip, [pc, #372]	; a3f846d0 <XModemReceive+0x30c>
a3f84558:	e2830001 	add	r0, r3, #1	; 0x1
a3f8455c:	e7de3003 	ldrb	r3, [lr, r3]
a3f84560:	e3a01007 	mov	r1, #7	; 0x7
a3f84564:	e0222403 	eor	r2, r2, r3, lsl #8
a3f84568:	e3120902 	tst	r2, #32768	; 0x8000
a3f8456c:	102c2082 	eorne	r2, ip, r2, lsl #1
a3f84570:	01a02082 	moveq	r2, r2, lsl #1
a3f84574:	e2511001 	subs	r1, r1, #1	; 0x1
a3f84578:	5afffffa 	bpl	a3f84568 <XModemReceive+0x1a4>
a3f8457c:	e1a03000 	mov	r3, r0
a3f84580:	e1530005 	cmp	r3, r5
a3f84584:	bafffff3 	blt	a3f84558 <XModemReceive+0x194>
a3f84588:	e1a03442 	mov	r3, r2, asr #8
a3f8458c:	e20330ff 	and	r3, r3, #255	; 0xff
a3f84590:	e51b0048 	ldr	r0, [fp, -#72]
a3f84594:	e51b104c 	ldr	r1, [fp, -#76]
a3f84598:	e20220ff 	and	r2, r2, #255	; 0xff
a3f8459c:	e1510002 	cmp	r1, r2
a3f845a0:	01500003 	cmpeq	r0, r3
a3f845a4:	0a00000d 	beq	a3f845e0 <XModemReceive+0x21c>
a3f845a8:	ea000025 	b	a3f84644 <XModemReceive+0x280>
a3f845ac:	e51b1040 	ldr	r1, [fp, -#64]
a3f845b0:	e1a02001 	mov	r2, r1
a3f845b4:	e1520005 	cmp	r2, r5
a3f845b8:	aa000006 	bge	a3f845d8 <XModemReceive+0x214>
a3f845bc:	e79a0009 	ldr	r0, [sl, r9]
a3f845c0:	e7d03002 	ldrb	r3, [r0, r2]
a3f845c4:	e2822001 	add	r2, r2, #1	; 0x1
a3f845c8:	e1520005 	cmp	r2, r5
a3f845cc:	e0813003 	add	r3, r1, r3
a3f845d0:	e20310ff 	and	r1, r3, #255	; 0xff
a3f845d4:	bafffff9 	blt	a3f845c0 <XModemReceive+0x1fc>
a3f845d8:	e1580001 	cmp	r8, r1
a3f845dc:	1a000018 	bne	a3f84644 <XModemReceive+0x280>
a3f845e0:	e51b2038 	ldr	r2, [fp, -#56]
a3f845e4:	e51b303c 	ldr	r3, [fp, -#60]
a3f845e8:	e51b0030 	ldr	r0, [fp, -#48]
a3f845ec:	e2822001 	add	r2, r2, #1	; 0x1
a3f845f0:	e0833005 	add	r3, r3, r5
a3f845f4:	e1530000 	cmp	r3, r0
a3f845f8:	e50b2038 	str	r2, [fp, -#56]
a3f845fc:	e50b303c 	str	r3, [fp, -#60]
a3f84600:	8a00000f 	bhi	a3f84644 <XModemReceive+0x280>
a3f84604:	e3a02000 	mov	r2, #0	; 0x0
a3f84608:	e1520005 	cmp	r2, r5
a3f8460c:	aa000007 	bge	a3f84630 <XModemReceive+0x26c>
a3f84610:	e79a1009 	ldr	r1, [sl, r9]
a3f84614:	e7d13002 	ldrb	r3, [r1, r2]
a3f84618:	e2822001 	add	r2, r2, #1	; 0x1
a3f8461c:	e51b002c 	ldr	r0, [fp, -#44]
a3f84620:	e1520005 	cmp	r2, r5
a3f84624:	e4c03001 	strb	r3, [r0], #1
a3f84628:	e50b002c 	str	r0, [fp, -#44]
a3f8462c:	bafffff8 	blt	a3f84614 <XModemReceive+0x250>
a3f84630:	e3a01000 	mov	r1, #0	; 0x0
a3f84634:	e3a00006 	mov	r0, #6	; 0x6
a3f84638:	e50b1034 	str	r1, [fp, -#52]
a3f8463c:	ebffff2f 	bl	a3f84300 <SerialPutChar>
a3f84640:	eaffff76 	b	a3f84420 <XModemReceive+0x5c>
a3f84644:	e51b2034 	ldr	r2, [fp, -#52]
a3f84648:	e2822001 	add	r2, r2, #1	; 0x1
a3f8464c:	e3520005 	cmp	r2, #5	; 0x5
a3f84650:	e50b2034 	str	r2, [fp, -#52]
a3f84654:	1a000014 	bne	a3f846ac <XModemReceive+0x2e8>
a3f84658:	e51b3044 	ldr	r3, [fp, -#68]
a3f8465c:	e3530043 	cmp	r3, #67	; 0x43
a3f84660:	1a000005 	bne	a3f8467c <XModemReceive+0x2b8>
a3f84664:	e3a00015 	mov	r0, #21	; 0x15
a3f84668:	e3a01000 	mov	r1, #0	; 0x0
a3f8466c:	e50b0044 	str	r0, [fp, -#68]
a3f84670:	e50b1040 	str	r1, [fp, -#64]
a3f84674:	e50b1034 	str	r1, [fp, -#52]
a3f84678:	eafffff1 	b	a3f84644 <XModemReceive+0x280>
a3f8467c:	e3a04004 	mov	r4, #4	; 0x4
a3f84680:	e3a00018 	mov	r0, #24	; 0x18
a3f84684:	ebffff1d 	bl	a3f84300 <SerialPutChar>
a3f84688:	e2544001 	subs	r4, r4, #1	; 0x1
a3f8468c:	5afffffb 	bpl	a3f84680 <XModemReceive+0x2bc>
a3f84690:	e3a04004 	mov	r4, #4	; 0x4
a3f84694:	e3a00008 	mov	r0, #8	; 0x8
a3f84698:	ebffff18 	bl	a3f84300 <SerialPutChar>
a3f8469c:	e2544001 	subs	r4, r4, #1	; 0x1
a3f846a0:	5afffffb 	bpl	a3f84694 <XModemReceive+0x2d0>
a3f846a4:	e3e00000 	mvn	r0, #0	; 0x0
a3f846a8:	e91baff0 	ldmdb	fp, {r4, r5, r6, r7, r8, r9, sl, fp, sp, pc}
a3f846ac:	ebffff1d 	bl	a3f84328 <SerialInPutflush>
a3f846b0:	e51b0044 	ldr	r0, [fp, -#68]
a3f846b4:	ebffff11 	bl	a3f84300 <SerialPutChar>
a3f846b8:	eaffff58 	b	a3f84420 <XModemReceive+0x5c>
a3f846bc:	e51b003c 	ldr	r0, [fp, -#60]
a3f846c0:	e91baff0 	ldmdb	fp, {r4, r5, r6, r7, r8, r9, sl, fp, sp, pc}
a3f846c4:	ffffbc1c 	swinv	0x00ffbc1c
a3f846c8:	00004cf4 	streqd	r4, [r0], -r4
a3f846cc:	00004cf8 	streqd	r4, [r0], -r8
a3f846d0:	00001021 	andeq	r1, r0, r1, lsr #32

a3f846d4 <DoRX>:
a3f846d4:	e1a0c00d 	mov	ip, sp
a3f846d8:	e92ddff0 	stmdb	sp!, {r4, r5, r6, r7, r8, r9, sl, fp, ip, lr, pc}
a3f846dc:	e24cb004 	sub	fp, ip, #4	; 0x4
a3f846e0:	e1a05002 	mov	r5, r2
a3f846e4:	e1a08001 	mov	r8, r1
a3f846e8:	e3a03000 	mov	r3, #0	; 0x0
a3f846ec:	e59fa154 	ldr	sl, [pc, #340]	; a3f84848 <DoRX+0x174>
a3f846f0:	e59f4154 	ldr	r4, [pc, #340]	; a3f8484c <DoRX+0x178>
a3f846f4:	e08fa00a 	add	sl, pc, sl
a3f846f8:	e79a1004 	ldr	r1, [sl, r4]
a3f846fc:	e24dd00c 	sub	sp, sp, #12	; 0xc
a3f84700:	e50b0030 	str	r0, [fp, -#48]
a3f84704:	e5950004 	ldr	r0, [r5, #4]
a3f84708:	e1a07003 	mov	r7, r3
a3f8470c:	e50b302c 	str	r3, [fp, -#44]
a3f84710:	ebfff3aa 	bl	a3f815c0 <StrCmp>
a3f84714:	e3500000 	cmp	r0, #0	; 0x0
a3f84718:	e50b4034 	str	r4, [fp, -#52]
a3f8471c:	e59f412c 	ldr	r4, [pc, #300]	; a3f84850 <DoRX+0x17c>
a3f84720:	e59f612c 	ldr	r6, [pc, #300]	; a3f84854 <DoRX+0x180>
a3f84724:	e59f912c 	ldr	r9, [pc, #300]	; a3f84858 <DoRX+0x184>
a3f84728:	0a00000e 	beq	a3f84768 <DoRX+0x94>
a3f8472c:	e5950004 	ldr	r0, [r5, #4]
a3f84730:	e79a1004 	ldr	r1, [sl, r4]
a3f84734:	ebfff3a1 	bl	a3f815c0 <StrCmp>
a3f84738:	e3500000 	cmp	r0, #0	; 0x0
a3f8473c:	0a000009 	beq	a3f84768 <DoRX+0x94>
a3f84740:	e5950004 	ldr	r0, [r5, #4]
a3f84744:	e79a1006 	ldr	r1, [sl, r6]
a3f84748:	ebfff39c 	bl	a3f815c0 <StrCmp>
a3f8474c:	e3500000 	cmp	r0, #0	; 0x0
a3f84750:	0a000004 	beq	a3f84768 <DoRX+0x94>
a3f84754:	e5950004 	ldr	r0, [r5, #4]
a3f84758:	e79a1009 	ldr	r1, [sl, r9]
a3f8475c:	ebfff397 	bl	a3f815c0 <StrCmp>
a3f84760:	e3500000 	cmp	r0, #0	; 0x0
a3f84764:	1a000021 	bne	a3f847f0 <DoRX+0x11c>
a3f84768:	e5950004 	ldr	r0, [r5, #4]
a3f8476c:	e79a1004 	ldr	r1, [sl, r4]
a3f84770:	ebfff392 	bl	a3f815c0 <StrCmp>
a3f84774:	e3500000 	cmp	r0, #0	; 0x0
a3f84778:	1a000002 	bne	a3f84788 <DoRX+0xb4>
a3f8477c:	e59f30d8 	ldr	r3, [pc, #216]	; a3f8485c <DoRX+0x188>
a3f84780:	e3a07602 	mov	r7, #2097152	; 0x200000
a3f84784:	e50b302c 	str	r3, [fp, -#44]
a3f84788:	e5950004 	ldr	r0, [r5, #4]
a3f8478c:	e79a1006 	ldr	r1, [sl, r6]
a3f84790:	ebfff38a 	bl	a3f815c0 <StrCmp>
a3f84794:	e3500000 	cmp	r0, #0	; 0x0
a3f84798:	1a000002 	bne	a3f847a8 <DoRX+0xd4>
a3f8479c:	e3a07832 	mov	r7, #3276800	; 0x320000
a3f847a0:	e3a034a1 	mov	r3, #-1593835520	; 0xa1000000
a3f847a4:	e50b302c 	str	r3, [fp, -#44]
a3f847a8:	e51b3034 	ldr	r3, [fp, -#52]
a3f847ac:	e5950004 	ldr	r0, [r5, #4]
a3f847b0:	e79a1003 	ldr	r1, [sl, r3]
a3f847b4:	ebfff381 	bl	a3f815c0 <StrCmp>
a3f847b8:	e3500000 	cmp	r0, #0	; 0x0
a3f847bc:	1a000002 	bne	a3f847cc <DoRX+0xf8>
a3f847c0:	e59f3098 	ldr	r3, [pc, #152]	; a3f84860 <DoRX+0x18c>
a3f847c4:	e3a07701 	mov	r7, #262144	; 0x40000
a3f847c8:	e50b302c 	str	r3, [fp, -#44]
a3f847cc:	e5950004 	ldr	r0, [r5, #4]
a3f847d0:	e79a1009 	ldr	r1, [sl, r9]
a3f847d4:	ebfff379 	bl	a3f815c0 <StrCmp>
a3f847d8:	e3500000 	cmp	r0, #0	; 0x0
a3f847dc:	1a000010 	bne	a3f84824 <DoRX+0x150>
a3f847e0:	e3a0761d 	mov	r7, #30408704	; 0x1d00000
a3f847e4:	e3a0320a 	mov	r3, #-1610612736	; 0xa0000000
a3f847e8:	e50b302c 	str	r3, [fp, -#44]
a3f847ec:	ea00000c 	b	a3f84824 <DoRX+0x150>
a3f847f0:	e3580001 	cmp	r8, #1	; 0x1
a3f847f4:	da000005 	ble	a3f84810 <DoRX+0x13c>
a3f847f8:	e24b102c 	sub	r1, fp, #44	; 0x2c
a3f847fc:	e5950004 	ldr	r0, [r5, #4]
a3f84800:	e3a02020 	mov	r2, #32	; 0x20
a3f84804:	ebfff383 	bl	a3f81618 <HexToInt>
a3f84808:	e3500000 	cmp	r0, #0	; 0x0
a3f8480c:	1a000004 	bne	a3f84824 <DoRX+0x150>
a3f84810:	e51b3030 	ldr	r3, [fp, -#48]
a3f84814:	e5930008 	ldr	r0, [r3, #8]
a3f84818:	ebfff474 	bl	a3f819f0 <printf>
a3f8481c:	e1a00007 	mov	r0, r7
a3f84820:	e91baff0 	ldmdb	fp, {r4, r5, r6, r7, r8, r9, sl, fp, sp, pc}
a3f84824:	e59f3038 	ldr	r3, [pc, #56]	; a3f84864 <DoRX+0x190>
a3f84828:	e51b102c 	ldr	r1, [fp, -#44]
a3f8482c:	e79a0003 	ldr	r0, [sl, r3]
a3f84830:	ebfff46e 	bl	a3f819f0 <printf>
a3f84834:	e51b002c 	ldr	r0, [fp, -#44]
a3f84838:	e1a01007 	mov	r1, r7
a3f8483c:	ebfffee0 	bl	a3f843c4 <XModemReceive>
a3f84840:	e3a00000 	mov	r0, #0	; 0x0
a3f84844:	e91baff0 	ldmdb	fp, {r4, r5, r6, r7, r8, r9, sl, fp, sp, pc}
a3f84848:	ffffb904 	swinv	0x00ffb904
a3f8484c:	00004cfc 	streqd	r4, [r0], -ip
a3f84850:	00004d00 	andeq	r4, r0, r0, lsl #26
a3f84854:	00004d04 	andeq	r4, r0, r4, lsl #26
a3f84858:	00004d08 	andeq	r4, r0, r8, lsl #26
a3f8485c:	a0008000 	andge	r8, r0, r0
a3f84860:	a1ff0000 	mvnges	r0, r0
a3f84864:	00004d0c 	andeq	r4, r0, ip, lsl #26

a3f84868 <SerialInputBlock>:
a3f84868:	e1a0c00d 	mov	ip, sp
a3f8486c:	e92ddbf0 	stmdb	sp!, {r4, r5, r6, r7, r8, r9, fp, ip, lr, pc}
a3f84870:	e24cb004 	sub	fp, ip, #4	; 0x4
a3f84874:	e1a09000 	mov	r9, r0
a3f84878:	e1a08001 	mov	r8, r1
a3f8487c:	e1a07002 	mov	r7, r2
a3f84880:	e24dd004 	sub	sp, sp, #4	; 0x4
a3f84884:	ebfffb72 	bl	a3f83654 <GetTime>
a3f84888:	e3a04000 	mov	r4, #0	; 0x0
a3f8488c:	e1a06004 	mov	r6, r4
a3f84890:	e1540008 	cmp	r4, r8
a3f84894:	e1a05000 	mov	r5, r0
a3f84898:	aa000011 	bge	a3f848e4 <SerialInputBlock+0x7c>
a3f8489c:	ea000005 	b	a3f848b8 <SerialInputBlock+0x50>
a3f848a0:	ebfffb6b 	bl	a3f83654 <GetTime>
a3f848a4:	e0650000 	rsb	r0, r5, r0
a3f848a8:	e1500007 	cmp	r0, r7
a3f848ac:	9a000001 	bls	a3f848b8 <SerialInputBlock+0x50>
a3f848b0:	e1a00004 	mov	r0, r4
a3f848b4:	e91babf0 	ldmdb	fp, {r4, r5, r6, r7, r8, r9, fp, sp, pc}
a3f848b8:	ebfffeae 	bl	a3f84378 <Serialtstc>
a3f848bc:	e3500000 	cmp	r0, #0	; 0x0
a3f848c0:	0afffff6 	beq	a3f848a0 <SerialInputBlock+0x38>
a3f848c4:	e24b0025 	sub	r0, fp, #37	; 0x25
a3f848c8:	ebfffe9f 	bl	a3f8434c <SerialInputChar>
a3f848cc:	e2844001 	add	r4, r4, #1	; 0x1
a3f848d0:	e55b3025 	ldrb	r3, [fp, -#37]
a3f848d4:	e1540008 	cmp	r4, r8
a3f848d8:	e7c93006 	strb	r3, [r9, r6]
a3f848dc:	e2866001 	add	r6, r6, #1	; 0x1
a3f848e0:	bafffff4 	blt	a3f848b8 <SerialInputBlock+0x50>
a3f848e4:	e1a00004 	mov	r0, r4
a3f848e8:	e91babf0 	ldmdb	fp, {r4, r5, r6, r7, r8, r9, fp, sp, pc}

a3f848ec <__divsi3>:
a3f848ec:	e020c001 	eor	ip, r0, r1
a3f848f0:	e3a03001 	mov	r3, #1	; 0x1
a3f848f4:	e3a02000 	mov	r2, #0	; 0x0
a3f848f8:	e3510000 	cmp	r1, #0	; 0x0
a3f848fc:	42611000 	rsbmi	r1, r1, #0	; 0x0
a3f84900:	0a000021 	beq	a3f8498c <Ldiv0>
a3f84904:	e3500000 	cmp	r0, #0	; 0x0
a3f84908:	42600000 	rsbmi	r0, r0, #0	; 0x0
a3f8490c:	e1500001 	cmp	r0, r1
a3f84910:	3a000019 	bcc	a3f8497c <Lgot_result>

a3f84914 <Loop1>:
a3f84914:	e3510201 	cmp	r1, #268435456	; 0x10000000
a3f84918:	31510000 	cmpcc	r1, r0
a3f8491c:	31a01201 	movcc	r1, r1, lsl #4
a3f84920:	31a03203 	movcc	r3, r3, lsl #4
a3f84924:	3afffffa 	bcc	a3f84914 <Loop1>

a3f84928 <Lbignum>:
a3f84928:	e3510102 	cmp	r1, #-2147483648	; 0x80000000
a3f8492c:	31510000 	cmpcc	r1, r0
a3f84930:	31a01081 	movcc	r1, r1, lsl #1
a3f84934:	31a03083 	movcc	r3, r3, lsl #1
a3f84938:	3afffffa 	bcc	a3f84928 <Lbignum>

a3f8493c <Loop3>:
a3f8493c:	e1500001 	cmp	r0, r1
a3f84940:	20400001 	subcs	r0, r0, r1
a3f84944:	21822003 	orrcs	r2, r2, r3
a3f84948:	e15000a1 	cmp	r0, r1, lsr #1
a3f8494c:	204000a1 	subcs	r0, r0, r1, lsr #1
a3f84950:	218220a3 	orrcs	r2, r2, r3, lsr #1
a3f84954:	e1500121 	cmp	r0, r1, lsr #2
a3f84958:	20400121 	subcs	r0, r0, r1, lsr #2
a3f8495c:	21822123 	orrcs	r2, r2, r3, lsr #2
a3f84960:	e15001a1 	cmp	r0, r1, lsr #3
a3f84964:	204001a1 	subcs	r0, r0, r1, lsr #3
a3f84968:	218221a3 	orrcs	r2, r2, r3, lsr #3
a3f8496c:	e3500000 	cmp	r0, #0	; 0x0
a3f84970:	11b03223 	movnes	r3, r3, lsr #4
a3f84974:	11a01221 	movne	r1, r1, lsr #4
a3f84978:	1affffef 	bne	a3f8493c <Loop3>

a3f8497c <Lgot_result>:
a3f8497c:	e1a00002 	mov	r0, r2
a3f84980:	e35c0000 	cmp	ip, #0	; 0x0
a3f84984:	42600000 	rsbmi	r0, r0, #0	; 0x0
a3f84988:	e1a0f00e 	mov	pc, lr

a3f8498c <Ldiv0>:
a3f8498c:	e52de004 	str	lr, [sp, -#4]!
a3f84990:	eb000001 	bl	a3f8499c <__div0>
a3f84994:	e3a00000 	mov	r0, #0	; 0x0
a3f84998:	e8bd8000 	ldmia	sp!, {pc}

a3f8499c <__div0>:
a3f8499c:	e92d4002 	stmdb	sp!, {r1, lr}
a3f849a0:	ef900014 	swi	0x00900014
a3f849a4:	e3700ffa 	cmn	r0, #1000	; 0x3e8
a3f849a8:	28bd8002 	ldmcsia	sp!, {r1, pc}
a3f849ac:	e3a01008 	mov	r1, #8	; 0x8
a3f849b0:	ef900025 	swi	0x00900025
a3f849b4:	e8bd8002 	ldmia	sp!, {r1, pc}

a3f849b8 <__modsi3>:
a3f849b8:	e3a03001 	mov	r3, #1	; 0x1
a3f849bc:	e3510000 	cmp	r1, #0	; 0x0
a3f849c0:	42611000 	rsbmi	r1, r1, #0	; 0x0
a3f849c4:	0a00002b 	beq	a3f84a78 <Ldiv0>
a3f849c8:	e52d0004 	str	r0, [sp, -#4]!
a3f849cc:	e3500000 	cmp	r0, #0	; 0x0
a3f849d0:	42600000 	rsbmi	r0, r0, #0	; 0x0
a3f849d4:	e1500001 	cmp	r0, r1
a3f849d8:	3a000022 	bcc	a3f84a68 <Lgot_result>

a3f849dc <Loop1>:
a3f849dc:	e3510201 	cmp	r1, #268435456	; 0x10000000
a3f849e0:	31510000 	cmpcc	r1, r0
a3f849e4:	31a01201 	movcc	r1, r1, lsl #4
a3f849e8:	31a03203 	movcc	r3, r3, lsl #4
a3f849ec:	3afffffa 	bcc	a3f849dc <Loop1>

a3f849f0 <Lbignum>:
a3f849f0:	e3510102 	cmp	r1, #-2147483648	; 0x80000000
a3f849f4:	31510000 	cmpcc	r1, r0
a3f849f8:	31a01081 	movcc	r1, r1, lsl #1
a3f849fc:	31a03083 	movcc	r3, r3, lsl #1
a3f84a00:	3afffffa 	bcc	a3f849f0 <Lbignum>

a3f84a04 <Loop3>:
a3f84a04:	e3a02000 	mov	r2, #0	; 0x0
a3f84a08:	e1500001 	cmp	r0, r1
a3f84a0c:	20400001 	subcs	r0, r0, r1
a3f84a10:	e15000a1 	cmp	r0, r1, lsr #1
a3f84a14:	204000a1 	subcs	r0, r0, r1, lsr #1
a3f84a18:	218220e3 	orrcs	r2, r2, r3, ror #1
a3f84a1c:	e1500121 	cmp	r0, r1, lsr #2
a3f84a20:	20400121 	subcs	r0, r0, r1, lsr #2
a3f84a24:	21822163 	orrcs	r2, r2, r3, ror #2
a3f84a28:	e15001a1 	cmp	r0, r1, lsr #3
a3f84a2c:	204001a1 	subcs	r0, r0, r1, lsr #3
a3f84a30:	218221e3 	orrcs	r2, r2, r3, ror #3
a3f84a34:	e1a0c003 	mov	ip, r3
a3f84a38:	e3500000 	cmp	r0, #0	; 0x0
a3f84a3c:	11b03223 	movnes	r3, r3, lsr #4
a3f84a40:	11a01221 	movne	r1, r1, lsr #4
a3f84a44:	1affffee 	bne	a3f84a04 <Loop3>
a3f84a48:	e212220e 	ands	r2, r2, #-536870912	; 0xe0000000
a3f84a4c:	0a000005 	beq	a3f84a68 <Lgot_result>
a3f84a50:	e11201ec 	tst	r2, ip, ror #3
a3f84a54:	108001a1 	addne	r0, r0, r1, lsr #3
a3f84a58:	e112016c 	tst	r2, ip, ror #2
a3f84a5c:	10800121 	addne	r0, r0, r1, lsr #2
a3f84a60:	e11200ec 	tst	r2, ip, ror #1
a3f84a64:	108000a1 	addne	r0, r0, r1, lsr #1

a3f84a68 <Lgot_result>:
a3f84a68:	e49dc004 	ldr	ip, [sp], #4
a3f84a6c:	e35c0000 	cmp	ip, #0	; 0x0
a3f84a70:	42600000 	rsbmi	r0, r0, #0	; 0x0
a3f84a74:	e1a0f00e 	mov	pc, lr

a3f84a78 <Ldiv0>:
a3f84a78:	e52de004 	str	lr, [sp, -#4]!
a3f84a7c:	ebffffc6 	bl	a3f8499c <__div0>
a3f84a80:	e3a00000 	mov	r0, #0	; 0x0
a3f84a84:	e8bd8000 	ldmia	sp!, {pc}
a3f84a88:	a3f86894 	mvnges	r6, #9699328	; 0x940000
a3f84a8c:	a3f863e4 	mvnges	r6, #-1879048189	; 0x90000003
a3f84a90:	a3f868c0 	mvnges	r6, #12582912	; 0xc00000
a3f84a94:	a3f86214 	mvnges	r6, #1073741825	; 0x40000001
a3f84a98:	a3f86216 	mvnges	r6, #1610612737	; 0x60000001
a3f84a9c:	a3f86224 	mvnges	r6, #1073741826	; 0x40000002
a3f84aa0:	a3f86220 	mvnges	r6, #2	; 0x2
a3f84aa4:	a3f86218 	mvnges	r6, #-2147483647	; 0x80000001
a3f84aa8:	a3f84d10 	mvnges	r4, #1024	; 0x400
a3f84aac:	a3f863d8 	mvnges	r6, #1610612739	; 0x60000003
a3f84ab0:	a3f84d2c 	mvnges	r4, #2816	; 0xb00
a3f84ab4:	a3f84d30 	mvnges	r4, #3072	; 0xc00
a3f84ab8:	a3f84d50 	mvnges	r4, #5120	; 0x1400
a3f84abc:	a3f84d4c 	mvnges	r4, #4864	; 0x1300
a3f84ac0:	a3f84dec 	mvnges	r4, #15104	; 0x3b00
a3f84ac4:	a3f84d54 	mvnges	r4, #5376	; 0x1500
a3f84ac8:	a3f84d6c 	mvnges	r4, #6912	; 0x1b00
a3f84acc:	a3f863cc 	mvnges	r6, #805306371	; 0x30000003
a3f84ad0:	a3f84d8c 	mvnges	r4, #8960	; 0x2300
a3f84ad4:	a3f863d4 	mvnges	r6, #1342177283	; 0x50000003
a3f84ad8:	a3f84dac 	mvnges	r4, #11008	; 0x2b00
a3f84adc:	a3f84dcc 	mvnges	r4, #13056	; 0x3300
a3f84ae0:	a3f863e0 	mvnges	r6, #-2147483645	; 0x80000003
a3f84ae4:	a3f86898 	mvnges	r6, #9961472	; 0x980000
a3f84ae8:	a3f8575c 	mvnges	r5, #24117248	; 0x1700000
a3f84aec:	a3f85774 	mvnges	r5, #30408704	; 0x1d00000
a3f84af0:	a3f8576c 	mvnges	r5, #28311552	; 0x1b00000
a3f84af4:	a3f85770 	mvnges	r5, #29360128	; 0x1c00000
a3f84af8:	a3f85778 	mvnges	r5, #31457280	; 0x1e00000
a3f84afc:	a3f85790 	mvnges	r5, #37748736	; 0x2400000
a3f84b00:	a3f857c4 	mvnges	r5, #51380224	; 0x3100000
a3f84b04:	a3f857d4 	mvnges	r5, #55574528	; 0x3500000
a3f84b08:	a3f857d8 	mvnges	r5, #56623104	; 0x3600000
a3f84b0c:	a3f857e8 	mvnges	r5, #60817408	; 0x3a00000
a3f84b10:	a3f857f0 	mvnges	r5, #62914560	; 0x3c00000
a3f84b14:	a3f85810 	mvnges	r5, #1048576	; 0x100000
a3f84b18:	a3f85818 	mvnges	r5, #1572864	; 0x180000
a3f84b1c:	a3f85838 	mvnges	r5, #3670016	; 0x380000
a3f84b20:	a3f85840 	mvnges	r5, #4194304	; 0x400000
a3f84b24:	a3f85880 	mvnges	r5, #8388608	; 0x800000
a3f84b28:	a3f858a4 	mvnges	r5, #10747904	; 0xa40000
a3f84b2c:	a3f858c0 	mvnges	r5, #12582912	; 0xc00000
a3f84b30:	a3f858c8 	mvnges	r5, #13107200	; 0xc80000
a3f84b34:	a3f858e4 	mvnges	r5, #14942208	; 0xe40000
a3f84b38:	a3f858ec 	mvnges	r5, #15466496	; 0xec0000
a3f84b3c:	a3f85908 	mvnges	r5, #131072	; 0x20000
a3f84b40:	a3f85910 	mvnges	r5, #262144	; 0x40000
a3f84b44:	a3f85930 	mvnges	r5, #786432	; 0xc0000
a3f84b48:	a3f85938 	mvnges	r5, #917504	; 0xe0000
a3f84b4c:	a3f85954 	mvnges	r5, #1376256	; 0x150000
a3f84b50:	a3f85974 	mvnges	r5, #1900544	; 0x1d0000
a3f84b54:	a3f859a4 	mvnges	r5, #2686976	; 0x290000
a3f84b58:	a3f859c0 	mvnges	r5, #3145728	; 0x300000
a3f84b5c:	a3f859ac 	mvnges	r5, #2818048	; 0x2b0000
a3f84b60:	a3f859d8 	mvnges	r5, #3538944	; 0x360000
a3f84b64:	a3f859f0 	mvnges	r5, #3932160	; 0x3c0000
a3f84b68:	a3f859f8 	mvnges	r5, #4063232	; 0x3e0000
a3f84b6c:	a3f85a14 	mvnges	r5, #81920	; 0x14000
a3f84b70:	a3f85a18 	mvnges	r5, #98304	; 0x18000
a3f84b74:	a3f85b10 	mvnges	r5, #16384	; 0x4000
a3f84b78:	a3f85b14 	mvnges	r5, #20480	; 0x5000
a3f84b7c:	a3f85b18 	mvnges	r5, #24576	; 0x6000
a3f84b80:	a3f85b70 	mvnges	r5, #114688	; 0x1c000
a3f84b84:	a3f85b78 	mvnges	r5, #122880	; 0x1e000
a3f84b88:	a3f85b64 	mvnges	r5, #102400	; 0x19000
a3f84b8c:	a3f85b7c 	mvnges	r5, #126976	; 0x1f000
a3f84b90:	a3f85b80 	mvnges	r5, #131072	; 0x20000
a3f84b94:	a3f85b84 	mvnges	r5, #135168	; 0x21000
a3f84b98:	a3f868a0 	mvnges	r6, #10485760	; 0xa00000
a3f84b9c:	a3f85b88 	mvnges	r5, #139264	; 0x22000
a3f84ba0:	a3f85c14 	mvnges	r5, #5120	; 0x1400
a3f84ba4:	a3f85b8c 	mvnges	r5, #143360	; 0x23000
a3f84ba8:	a3f86228 	mvnges	r6, #-2147483646	; 0x80000002
a3f84bac:	a3f85c34 	mvnges	r5, #13312	; 0x3400
a3f84bb0:	a3f85bc0 	mvnges	r5, #196608	; 0x30000
a3f84bb4:	a3f85c48 	mvnges	r5, #18432	; 0x4800
a3f84bb8:	a3f85c70 	mvnges	r5, #28672	; 0x7000
a3f84bbc:	a3f85be0 	mvnges	r5, #229376	; 0x38000
a3f84bc0:	a3f85c78 	mvnges	r5, #30720	; 0x7800
a3f84bc4:	a3f85c7c 	mvnges	r5, #31744	; 0x7c00
a3f84bc8:	a3f85be4 	mvnges	r5, #233472	; 0x39000
a3f84bcc:	a3f85c18 	mvnges	r5, #6144	; 0x1800
a3f84bd0:	a3f85c2c 	mvnges	r5, #11264	; 0x2c00
a3f84bd4:	a3f85c94 	mvnges	r5, #37888	; 0x9400
a3f84bd8:	a3f85cac 	mvnges	r5, #44032	; 0xac00
a3f84bdc:	a3f85cd4 	mvnges	r5, #54272	; 0xd400
a3f84be0:	a3f863f4 	mvnges	r6, #-805306365	; 0xd0000003
a3f84be4:	a3f863f6 	mvnges	r6, #-671088637	; 0xd8000003
a3f84be8:	a3f863f8 	mvnges	r6, #-536870909	; 0xe0000003
a3f84bec:	a3f868b0 	mvnges	r6, #11534336	; 0xb00000
a3f84bf0:	a3f85d14 	mvnges	r5, #1280	; 0x500
a3f84bf4:	a3f85d24 	mvnges	r5, #2304	; 0x900
a3f84bf8:	a3f85d20 	mvnges	r5, #2048	; 0x800
a3f84bfc:	a3f85d2c 	mvnges	r5, #2816	; 0xb00
a3f84c00:	a3f85d50 	mvnges	r5, #5120	; 0x1400
a3f84c04:	a3f85d74 	mvnges	r5, #7424	; 0x1d00
a3f84c08:	a3f85dac 	mvnges	r5, #11008	; 0x2b00
a3f84c0c:	a3f863f0 	mvnges	r6, #-1073741821	; 0xc0000003
a3f84c10:	a3f85db4 	mvnges	r5, #11520	; 0x2d00
a3f84c14:	a3f85dbc 	mvnges	r5, #12032	; 0x2f00
a3f84c18:	a3f85dc4 	mvnges	r5, #12544	; 0x3100
a3f84c1c:	a3f85dcc 	mvnges	r5, #13056	; 0x3300
a3f84c20:	a3f85de4 	mvnges	r5, #14592	; 0x3900
a3f84c24:	a3f85e00 	mvnges	r5, #0	; 0x0
a3f84c28:	a3f85e20 	mvnges	r5, #512	; 0x200
a3f84c2c:	a3f85e30 	mvnges	r5, #768	; 0x300
a3f84c30:	a3f85e50 	mvnges	r5, #1280	; 0x500
a3f84c34:	a3f85e54 	mvnges	r5, #1344	; 0x540
a3f84c38:	a3f86410 	mvnges	r6, #268435456	; 0x10000000
a3f84c3c:	a3f85e74 	mvnges	r5, #1856	; 0x740
a3f84c40:	a3f85e94 	mvnges	r5, #2368	; 0x940
a3f84c44:	a3f85ebc 	mvnges	r5, #3008	; 0xbc0
a3f84c48:	a3f863e8 	mvnges	r6, #-1610612733	; 0xa0000003
a3f84c4c:	a3f86490 	mvnges	r6, #-1879048192	; 0x90000000
a3f84c50:	a3f863ea 	mvnges	r6, #-1476395005	; 0xa8000003
a3f84c54:	a3f85ed0 	mvnges	r5, #3328	; 0xd00
a3f84c58:	a3f85ef0 	mvnges	r5, #3840	; 0xf00
a3f84c5c:	a3f85ef8 	mvnges	r5, #3968	; 0xf80
a3f84c60:	a3f85f08 	mvnges	r5, #32	; 0x20
a3f84c64:	a3f85f1c 	mvnges	r5, #112	; 0x70
a3f84c68:	a3f863ec 	mvnges	r6, #-1342177277	; 0xb0000003
a3f84c6c:	a3f85f38 	mvnges	r5, #224	; 0xe0
a3f84c70:	a3f85f58 	mvnges	r5, #352	; 0x160
a3f84c74:	a3f85f68 	mvnges	r5, #416	; 0x1a0
a3f84c78:	a3f85f80 	mvnges	r5, #512	; 0x200
a3f84c7c:	a3f85f9c 	mvnges	r5, #624	; 0x270
a3f84c80:	a3f85fa0 	mvnges	r5, #640	; 0x280
a3f84c84:	a3f85fa8 	mvnges	r5, #672	; 0x2a0
a3f84c88:	a3f85fac 	mvnges	r5, #688	; 0x2b0
a3f84c8c:	a3f85fb0 	mvnges	r5, #704	; 0x2c0
a3f84c90:	a3f85fcc 	mvnges	r5, #816	; 0x330
a3f84c94:	a3f85fd4 	mvnges	r5, #848	; 0x350
a3f84c98:	a3f85fe0 	mvnges	r5, #896	; 0x380
a3f84c9c:	a3f85ff4 	mvnges	r5, #976	; 0x3d0
a3f84ca0:	a3f86004 	mvnges	r6, #4	; 0x4
a3f84ca4:	a3f8600c 	mvnges	r6, #12	; 0xc
a3f84ca8:	a3f86014 	mvnges	r6, #20	; 0x14
a3f84cac:	a3f8601c 	mvnges	r6, #28	; 0x1c
a3f84cb0:	a3f86020 	mvnges	r6, #32	; 0x20
a3f84cb4:	a3f86040 	mvnges	r6, #64	; 0x40
a3f84cb8:	a3f86060 	mvnges	r6, #96	; 0x60
a3f84cbc:	a3f86068 	mvnges	r6, #104	; 0x68
a3f84cc0:	a3f86070 	mvnges	r6, #112	; 0x70
a3f84cc4:	a3f86078 	mvnges	r6, #120	; 0x78
a3f84cc8:	a3f86080 	mvnges	r6, #128	; 0x80
a3f84ccc:	a3f860a0 	mvnges	r6, #160	; 0xa0
a3f84cd0:	a3f860e0 	mvnges	r6, #224	; 0xe0
a3f84cd4:	a3f86100 	mvnges	r6, #0	; 0x0
a3f84cd8:	a3f86104 	mvnges	r6, #1	; 0x1
a3f84cdc:	a3f86128 	mvnges	r6, #10	; 0xa
a3f84ce0:	a3f86154 	mvnges	r6, #21	; 0x15
a3f84ce4:	a3f86150 	mvnges	r6, #20	; 0x14
a3f84ce8:	a3f8618c 	mvnges	r6, #35	; 0x23
a3f84cec:	a3f86190 	mvnges	r6, #36	; 0x24
a3f84cf0:	a3f86130 	mvnges	r6, #12	; 0xc
a3f84cf4:	a3f861b4 	mvnges	r6, #45	; 0x2d
a3f84cf8:	a3f86494 	mvnges	r6, #-1811939328	; 0x94000000
a3f84cfc:	a3f861d4 	mvnges	r6, #53	; 0x35
a3f84d00:	a3f861dc 	mvnges	r6, #55	; 0x37
a3f84d04:	a3f861e4 	mvnges	r6, #57	; 0x39
a3f84d08:	a3f861ec 	mvnges	r6, #59	; 0x3b
a3f84d0c:	a3f861f4 	mvnges	r6, #61	; 0x3d
a3f84d10:	2072754f 	rsbcss	r7, r2, pc, asr #10
a3f84d14:	65687445 	strvsb	r7, [r8, -#1093]!
a3f84d18:	74656e72 	strvcbt	r6, [r5], -#3698
a3f84d1c:	64646120 	strvsbt	r6, [r4], -#288
a3f84d20:	73736572 	cmnvc	r3, #478150656	; 0x1c800000
a3f84d24:	20736920 	rsbcss	r6, r3, r0, lsr #18
a3f84d28:	00000000 	andeq	r0, r0, r0
a3f84d2c:	00000a2e 	andeq	r0, r0, lr, lsr #20
a3f84d30:	6e655309 	cdpvs	3, 6, cr5, cr5, cr9, {0}
a3f84d34:	676e6964 	strvsb	r6, [lr, -r4, ror #18]!
a3f84d38:	6f6f6220 	swivs	0x006f6220
a3f84d3c:	70207074 	eorvc	r7, r0, r4, ror r0
a3f84d40:	656b6361 	strvsb	r6, [fp, -#865]!
a3f84d44:	2e2e2e74 	mcrcs	14, 1, r2, cr14, cr4, {3}
a3f84d48:	0000000a 	andeq	r0, r0, sl
a3f84d4c:	0000002e 	andeq	r0, r0, lr, lsr #32
a3f84d50:	0000000a 	andeq	r0, r0, sl
a3f84d54:	746f6f42 	strvcbt	r6, [pc], #3906	; a3f84d5c <Ldiv0+0x2e4>
a3f84d58:	61502070 	cmpvs	r0, r0, ror r0
a3f84d5c:	74656b63 	strvcbt	r6, [r5], -#2915
a3f84d60:	63657220 	cmnvs	r5, #2	; 0x2
a3f84d64:	65766965 	ldrvsb	r6, [r6, -#2405]!
a3f84d68:	000a2e64 	andeq	r2, sl, r4, ror #28
a3f84d6c:	736f4809 	cmnvc	pc, #589824	; 0x90000
a3f84d70:	20202074 	eorcs	r2, r0, r4, ror r0
a3f84d74:	72657328 	rsbvc	r7, r5, #-1610612736	; 0xa0000000
a3f84d78:	29726576 	ldmcsdb	r2!, {r1, r2, r4, r5, r6, r8, sl, sp, lr}^
a3f84d7c:	68744520 	ldmvsda	r4!, {r5, r8, sl, lr}^
a3f84d80:	656e7265 	strvsb	r7, [lr, -#613]!
a3f84d84:	203a2074 	eorcss	r2, sl, r4, ror r0
a3f84d88:	00000000 	andeq	r0, r0, r0
a3f84d8c:	736f4809 	cmnvc	pc, #589824	; 0x90000
a3f84d90:	20202074 	eorcs	r2, r0, r4, ror r0
a3f84d94:	72657328 	rsbvc	r7, r5, #-1610612736	; 0xa0000000
a3f84d98:	29726576 	ldmcsdb	r2!, {r1, r2, r4, r5, r6, r8, sl, sp, lr}^
a3f84d9c:	20504920 	subcss	r4, r0, r0, lsr #18
a3f84da0:	20202020 	eorcs	r2, r0, r0, lsr #32
a3f84da4:	203a2020 	eorcss	r2, sl, r0, lsr #32
a3f84da8:	00000000 	andeq	r0, r0, r0
a3f84dac:	696c4309 	stmvsdb	ip!, {r0, r3, r8, r9, lr}^
a3f84db0:	20746e65 	rsbcss	r6, r4, r5, ror #28
a3f84db4:	72617428 	rsbvc	r7, r1, #671088640	; 0x28000000
a3f84db8:	29746567 	ldmcsdb	r4!, {r0, r1, r2, r5, r6, r8, sl, sp, lr}^
a3f84dbc:	68744520 	ldmvsda	r4!, {r5, r8, sl, lr}^
a3f84dc0:	656e7265 	strvsb	r7, [lr, -#613]!
a3f84dc4:	203a2074 	eorcss	r2, sl, r4, ror r0
a3f84dc8:	00000000 	andeq	r0, r0, r0
a3f84dcc:	696c4309 	stmvsdb	ip!, {r0, r3, r8, r9, lr}^
a3f84dd0:	20746e65 	rsbcss	r6, r4, r5, ror #28
a3f84dd4:	72617428 	rsbvc	r7, r1, #671088640	; 0x28000000
a3f84dd8:	29746567 	ldmcsdb	r4!, {r0, r1, r2, r5, r6, r8, sl, sp, lr}^
a3f84ddc:	20504920 	subcss	r4, r0, r0, lsr #18
a3f84de0:	20202020 	eorcs	r2, r0, r0, lsr #32
a3f84de4:	203a2020 	eorcss	r2, sl, r0, lsr #32
a3f84de8:	00000000 	andeq	r0, r0, r0
a3f84dec:	746f6f42 	strvcbt	r6, [pc], #3906	; a3f84df4 <Ldiv0+0x37c>
a3f84df0:	61702070 	cmnvs	r0, r0, ror r0
a3f84df4:	74656b63 	strvcbt	r6, [r5], -#2915
a3f84df8:	20736920 	rsbcss	r6, r3, r0, lsr #18
a3f84dfc:	20746f6e 	rsbcss	r6, r4, lr, ror #30
a3f84e00:	65636572 	strvsb	r6, [r3, -#1394]!
a3f84e04:	64657669 	strvsbt	r7, [r5], -#1641
a3f84e08:	000a0a2e 	andeq	r0, sl, lr, lsr #20
a3f84e0c:	74736574 	ldrvcbt	r6, [r3], -#1396
a3f84e10:	00000000 	andeq	r0, r0, r0
a3f84e14:	65722020 	ldrvsb	r2, [r2, -#32]!
a3f84e18:	746f6f62 	strvcbt	r6, [pc], #3938	; a3f84e20 <Ldiv0+0x3a8>
a3f84e1c:	20202020 	eorcs	r2, r0, r0, lsr #32
a3f84e20:	20202020 	eorcs	r2, r0, r0, lsr #32
a3f84e24:	20202020 	eorcs	r2, r0, r0, lsr #32
a3f84e28:	20202020 	eorcs	r2, r0, r0, lsr #32
a3f84e2c:	20202020 	eorcs	r2, r0, r0, lsr #32
a3f84e30:	20202020 	eorcs	r2, r0, r0, lsr #32
a3f84e34:	20202020 	eorcs	r2, r0, r0, lsr #32
a3f84e38:	20202020 	eorcs	r2, r0, r0, lsr #32
a3f84e3c:	53202020 	teqpl	r0, #32	; 0x20
a3f84e40:	7774666f 	ldrvcb	r6, [r4, -pc, ror #12]!
a3f84e44:	20657261 	rsbcs	r7, r5, r1, ror #4
a3f84e48:	6f626572 	swivs	0x00626572
a3f84e4c:	0a2e746f 	beq	a4b22010 <_ld_stack_address+0xb22010>
a3f84e50:	00000000 	andeq	r0, r0, r0
a3f84e54:	6f626572 	swivs	0x00626572
a3f84e58:	0000746f 	andeq	r7, r0, pc, ror #8
a3f84e5c:	74732020 	ldrvcbt	r2, [r3], -#32
a3f84e60:	73757461 	cmnvc	r5, #1627389952	; 0x61000000
a3f84e64:	20202020 	eorcs	r2, r0, r0, lsr #32
a3f84e68:	20202020 	eorcs	r2, r0, r0, lsr #32
a3f84e6c:	20202020 	eorcs	r2, r0, r0, lsr #32
a3f84e70:	20202020 	eorcs	r2, r0, r0, lsr #32
a3f84e74:	20202020 	eorcs	r2, r0, r0, lsr #32
a3f84e78:	20202020 	eorcs	r2, r0, r0, lsr #32
a3f84e7c:	20202020 	eorcs	r2, r0, r0, lsr #32
a3f84e80:	20202020 	eorcs	r2, r0, r0, lsr #32
a3f84e84:	56202020 	strplt	r2, [r0], -r0, lsr #32
a3f84e88:	20776569 	rsbcss	r6, r7, r9, ror #10
a3f84e8c:	64616f6c 	strvsbt	r6, [r1], -#3948
a3f84e90:	73207265 	teqvc	r0, #1342177286	; 0x50000006
a3f84e94:	75746174 	ldrvcb	r6, [r4, -#372]!
a3f84e98:	000a2e73 	andeq	r2, sl, r3, ror lr
a3f84e9c:	74617473 	strvcbt	r7, [r1], -#1139
a3f84ea0:	00007375 	andeq	r7, r0, r5, ror r3
a3f84ea4:	65722020 	ldrvsb	r2, [r2, -#32]!
a3f84ea8:	7b206461 	blvc	a479e034 <_ld_stack_address+0x79e034>
a3f84eac:	2f732f63 	swics	0x00732f63
a3f84eb0:	5b207d6c 	blpl	a47a4468 <_ld_stack_address+0x7a4468>
a3f84eb4:	72646461 	rsbvc	r6, r4, #1627389952	; 0x61000000
a3f84eb8:	2020205d 	eorcs	r2, r0, sp, asr r0
a3f84ebc:	20202020 	eorcs	r2, r0, r0, lsr #32
a3f84ec0:	20202020 	eorcs	r2, r0, r0, lsr #32
a3f84ec4:	20202020 	eorcs	r2, r0, r0, lsr #32
a3f84ec8:	20202020 	eorcs	r2, r0, r0, lsr #32
a3f84ecc:	52202020 	eorpl	r2, r0, #32	; 0x20
a3f84ed0:	20646165 	rsbcs	r6, r4, r5, ror #2
a3f84ed4:	61206e69 	teqvs	r0, r9, ror #28
a3f84ed8:	2e726464 	cdpcs	4, 7, cr6, cr2, cr4, {3}
a3f84edc:	383a6320 	ldmccda	sl!, {r5, r8, r9, sp, lr}
a3f84ee0:	313a7320 	teqcc	sl, r0, lsr #6
a3f84ee4:	3a6c2036 	bcc	a5a8cfc4 <_ld_stack_address+0x1a8cfc4>
a3f84ee8:	62203233 	eorvs	r3, r0, #805306371	; 0x30000003
a3f84eec:	2e737469 	cdpcs	4, 7, cr7, cr3, cr9, {3}
a3f84ef0:	0000000a 	andeq	r0, r0, sl
a3f84ef4:	64616572 	strvsbt	r6, [r1], -#1394
a3f84ef8:	00000000 	andeq	r0, r0, r0
a3f84efc:	72772020 	rsbvcs	r2, r7, #32	; 0x20
a3f84f00:	20657469 	rsbcs	r7, r5, r9, ror #8
a3f84f04:	732f637b 	teqvc	pc, #-335544319	; 0xec000001
a3f84f08:	207d6c2f 	rsbcss	r6, sp, pc, lsr #24
a3f84f0c:	6464615b 	strvsbt	r6, [r4], -#347
a3f84f10:	5b205d72 	blpl	a479c4e0 <_ld_stack_address+0x79c4e0>
a3f84f14:	756c6176 	strvcb	r6, [ip, -#374]!
a3f84f18:	20205d65 	eorcs	r5, r0, r5, ror #26
a3f84f1c:	20202020 	eorcs	r2, r0, r0, lsr #32
a3f84f20:	20202020 	eorcs	r2, r0, r0, lsr #32
a3f84f24:	57202020 	strpl	r2, [r0, -r0, lsr #32]!
a3f84f28:	65746972 	ldrvsb	r6, [r4, -#2418]!
a3f84f2c:	206e6920 	rsbcs	r6, lr, r0, lsr #18
a3f84f30:	72646461 	rsbvc	r6, r4, #1627389952	; 0x61000000
a3f84f34:	3a63202e 	bcc	a584cff4 <_ld_stack_address+0x184cff4>
a3f84f38:	3a732038 	bcc	a5c4d020 <_ld_stack_address+0x1c4d020>
a3f84f3c:	6c203631 	stcvs	6, cr3, [r0], -#196
a3f84f40:	2032333a 	eorcss	r3, r2, sl, lsr r3
a3f84f44:	73746962 	cmnvc	r4, #1605632	; 0x188000
a3f84f48:	00000a2e 	andeq	r0, r0, lr, lsr #20
a3f84f4c:	74697277 	strvcbt	r7, [r9], -#631
a3f84f50:	00000065 	andeq	r0, r0, r5, rrx
a3f84f54:	656d2020 	strvsb	r2, [sp, -#32]!
a3f84f58:	7465736d 	strvcbt	r7, [r5], -#877
a3f84f5c:	64615b20 	strvsbt	r5, [r1], -#2848
a3f84f60:	205d7264 	subcss	r7, sp, r4, ror #4
a3f84f64:	6c61765b 	stcvsl	6, cr7, [r1], -#364
a3f84f68:	205d6575 	subcss	r6, sp, r5, ror r5
a3f84f6c:	6e656c5b 	mcrvs	12, 3, r6, cr5, cr11, {2}
a3f84f70:	2020205d 	eorcs	r2, r0, sp, asr r0
a3f84f74:	20202020 	eorcs	r2, r0, r0, lsr #32
a3f84f78:	20202020 	eorcs	r2, r0, r0, lsr #32
a3f84f7c:	46202020 	strmit	r2, [r0], -r0, lsr #32
a3f84f80:	206c6c69 	rsbcs	r6, ip, r9, ror #24
a3f84f84:	6f6d654d 	swivs	0x006d654d
a3f84f88:	77207972 	undefined
a3f84f8c:	20687469 	rsbcs	r7, r8, r9, ror #8
a3f84f90:	756c6176 	strvcb	r6, [ip, -#374]!
a3f84f94:	000a2e65 	andeq	r2, sl, r5, ror #28
a3f84f98:	736d656d 	cmnvc	sp, #457179136	; 0x1b400000
a3f84f9c:	00007465 	andeq	r7, r0, r5, ror #8
a3f84fa0:	656d2020 	strvsb	r2, [sp, -#32]!
a3f84fa4:	706d636d 	rsbvc	r6, sp, sp, ror #6
a3f84fa8:	64615b20 	strvsbt	r5, [r1], -#2848
a3f84fac:	5d317264 	lfmpl	f7, 4, [r1, -#400]!
a3f84fb0:	64615b20 	strvsbt	r5, [r1], -#2848
a3f84fb4:	5d327264 	lfmpl	f7, 4, [r2, -#400]!
a3f84fb8:	656c5b20 	strvsb	r5, [ip, -#2848]!
a3f84fbc:	20205d6e 	eorcs	r5, r0, lr, ror #26
a3f84fc0:	20202020 	eorcs	r2, r0, r0, lsr #32
a3f84fc4:	20202020 	eorcs	r2, r0, r0, lsr #32
a3f84fc8:	43202020 	teqmi	r0, #32	; 0x20
a3f84fcc:	61706d6f 	cmnvs	r0, pc, ror #26
a3f84fd0:	64206572 	strvst	r6, [r0], -#1394
a3f84fd4:	20617461 	rsbcs	r7, r1, r1, ror #8
a3f84fd8:	61206e69 	teqvs	r0, r9, ror #28
a3f84fdc:	31726464 	cmncc	r2, r4, ror #8
a3f84fe0:	646e6120 	strvsbt	r6, [lr], -#288
a3f84fe4:	64646120 	strvsbt	r6, [r4], -#288
a3f84fe8:	0a2e3272 	beq	a4b119b8 <_ld_stack_address+0xb119b8>
a3f84fec:	00000000 	andeq	r0, r0, r0
a3f84ff0:	636d656d 	cmnvs	sp, #457179136	; 0x1b400000
a3f84ff4:	0000706d 	andeq	r7, r0, sp, rrx
a3f84ff8:	65682020 	strvsb	r2, [r8, -#32]!
a3f84ffc:	6d756478 	cfldrdvs	mvd6, [r5, -#480]!
a3f85000:	615b2070 	cmpvs	fp, r0, ror r0
a3f85004:	5d726464 	cfldrdpl	mvd6, [r2, -#400]!
a3f85008:	656c5b20 	strvsb	r5, [ip, -#2848]!
a3f8500c:	20205d6e 	eorcs	r5, r0, lr, ror #26
a3f85010:	20202020 	eorcs	r2, r0, r0, lsr #32
a3f85014:	20202020 	eorcs	r2, r0, r0, lsr #32
a3f85018:	20202020 	eorcs	r2, r0, r0, lsr #32
a3f8501c:	20202020 	eorcs	r2, r0, r0, lsr #32
a3f85020:	44202020 	strmit	r2, [r0], -#32
a3f85024:	20706d75 	rsbcss	r6, r0, r5, ror sp
a3f85028:	6f6d654d 	swivs	0x006d654d
a3f8502c:	0a2e7972 	beq	a4b235fc <_ld_stack_address+0xb235fc>
a3f85030:	00000000 	andeq	r0, r0, r0
a3f85034:	64786568 	ldrvsbt	r6, [r8], -#1384
a3f85038:	00706d75 	rsbeqs	r6, r0, r5, ror sp
a3f8503c:	656d2020 	strvsb	r2, [sp, -#32]!
a3f85040:	6d75646d 	cfldrdvs	mvd6, [r5, -#436]!
a3f85044:	615b2070 	cmpvs	fp, r0, ror r0
a3f85048:	5d726464 	cfldrdpl	mvd6, [r2, -#400]!
a3f8504c:	656c5b20 	strvsb	r5, [ip, -#2848]!
a3f85050:	20205d6e 	eorcs	r5, r0, lr, ror #26
a3f85054:	20202020 	eorcs	r2, r0, r0, lsr #32
a3f85058:	20202020 	eorcs	r2, r0, r0, lsr #32
a3f8505c:	20202020 	eorcs	r2, r0, r0, lsr #32
a3f85060:	20202020 	eorcs	r2, r0, r0, lsr #32
a3f85064:	44202020 	strmit	r2, [r0], -#32
a3f85068:	20706d75 	rsbcss	r6, r0, r5, ror sp
a3f8506c:	6f6d654d 	swivs	0x006d654d
a3f85070:	0a2e7972 	beq	a4b23640 <_ld_stack_address+0xb23640>
a3f85074:	00000000 	andeq	r0, r0, r0
a3f85078:	646d656d 	strvsbt	r6, [sp], -#1389
a3f8507c:	00706d75 	rsbeqs	r6, r0, r5, ror sp
a3f85080:	656d2020 	strvsb	r2, [sp, -#32]!
a3f85084:	7970636d 	ldmvcdb	r0!, {r0, r2, r3, r5, r6, r8, r9, sp, lr}^
a3f85088:	65645b20 	strvsb	r5, [r4, -#2848]!
a3f8508c:	205d7473 	subcss	r7, sp, r3, ror r4
a3f85090:	6372735b 	cmnvs	r2, #1811939329	; 0x6c000001
a3f85094:	6c5b205d 	mrrcvs	0, 5, r2, fp, cr13
a3f85098:	205d6e65 	subcss	r6, sp, r5, ror #28
a3f8509c:	20202020 	eorcs	r2, r0, r0, lsr #32
a3f850a0:	20202020 	eorcs	r2, r0, r0, lsr #32
a3f850a4:	20202020 	eorcs	r2, r0, r0, lsr #32
a3f850a8:	43202020 	teqmi	r0, #32	; 0x20
a3f850ac:	2079706f 	rsbcss	r7, r9, pc, rrx
a3f850b0:	53206f74 	teqpl	r0, #464	; 0x1d0
a3f850b4:	4d415244 	sfmmi	f5, 2, [r1, -#272]
a3f850b8:	6f726620 	swivs	0x00726620
a3f850bc:	6c46206d 	mcrrvs	0, 6, r2, r6, cr13
a3f850c0:	20687361 	rsbcs	r7, r8, r1, ror #6
a3f850c4:	5320726f 	teqpl	r0, #-268435450	; 0xf0000006
a3f850c8:	4d415244 	sfmmi	f5, 2, [r1, -#272]
a3f850cc:	00000a2e 	andeq	r0, r0, lr, lsr #20
a3f850d0:	636d656d 	cmnvs	sp, #457179136	; 0x1b400000
a3f850d4:	00007970 	andeq	r7, r0, r0, ror r9
a3f850d8:	6f622020 	swivs	0x00622020
a3f850dc:	2020746f 	eorcs	r7, r0, pc, ror #8
a3f850e0:	20202020 	eorcs	r2, r0, r0, lsr #32
a3f850e4:	20202020 	eorcs	r2, r0, r0, lsr #32
a3f850e8:	20202020 	eorcs	r2, r0, r0, lsr #32
a3f850ec:	20202020 	eorcs	r2, r0, r0, lsr #32
a3f850f0:	20202020 	eorcs	r2, r0, r0, lsr #32
a3f850f4:	20202020 	eorcs	r2, r0, r0, lsr #32
a3f850f8:	20202020 	eorcs	r2, r0, r0, lsr #32
a3f850fc:	20202020 	eorcs	r2, r0, r0, lsr #32
a3f85100:	42202020 	eormi	r2, r0, #32	; 0x20
a3f85104:	69746f6f 	ldmvsdb	r4!, {r0, r1, r2, r3, r5, r6, r8, r9, sl, fp, sp, lr}^
a3f85108:	7420676e 	strvct	r6, [r0], -#1902
a3f8510c:	4b206568 	blmi	a479e6b4 <_ld_stack_address+0x79e6b4>
a3f85110:	656e7265 	strvsb	r7, [lr, -#613]!
a3f85114:	000a2e6c 	andeq	r2, sl, ip, ror #28
a3f85118:	746f6f62 	strvcbt	r6, [pc], #3938	; a3f85120 <Ldiv0+0x6a8>
a3f8511c:	00000000 	andeq	r0, r0, r0
a3f85120:	6e752020 	cdpvs	0, 7, cr2, cr5, cr0, {1}
a3f85124:	6b636f6c 	blvs	a5860edc <_ld_stack_address+0x1860edc>
a3f85128:	20202020 	eorcs	r2, r0, r0, lsr #32
a3f8512c:	20202020 	eorcs	r2, r0, r0, lsr #32
a3f85130:	20202020 	eorcs	r2, r0, r0, lsr #32
a3f85134:	20202020 	eorcs	r2, r0, r0, lsr #32
a3f85138:	20202020 	eorcs	r2, r0, r0, lsr #32
a3f8513c:	20202020 	eorcs	r2, r0, r0, lsr #32
a3f85140:	20202020 	eorcs	r2, r0, r0, lsr #32
a3f85144:	20202020 	eorcs	r2, r0, r0, lsr #32
a3f85148:	43202020 	teqmi	r0, #32	; 0x20
a3f8514c:	7261656c 	rsbvc	r6, r1, #452984832	; 0x1b000000
a3f85150:	6c6c4120 	stfvse	f4, [ip], -#128
a3f85154:	616c4620 	cmnvs	ip, r0, lsr #12
a3f85158:	4c206873 	stcmi	8, cr6, [r0], -#460
a3f8515c:	2d6b636f 	stccsl	3, cr6, [fp, -#444]!
a3f85160:	2e746942 	cdpcs	9, 7, cr6, cr4, cr2, {2}
a3f85164:	0000000a 	andeq	r0, r0, sl
a3f85168:	6f6c6e75 	swivs	0x006c6e75
a3f8516c:	00006b63 	andeq	r6, r0, r3, ror #22
a3f85170:	6f6c2020 	swivs	0x006c2020
a3f85174:	7b206b63 	blvc	a479ff08 <_ld_stack_address+0x79ff08>
a3f85178:	64616f6c 	strvsbt	r6, [r1], -#3948
a3f8517c:	6b2f7265 	blvs	a4b61b18 <_ld_stack_address+0xb61b18>
a3f85180:	656e7265 	strvsb	r7, [lr, -#613]!
a3f85184:	6f722f6c 	swivs	0x00722f6c
a3f85188:	722f746f 	eorvc	r7, pc, #1862270976	; 0x6f000000
a3f8518c:	69646d61 	stmvsdb	r4!, {r0, r5, r6, r8, sl, fp, sp, lr}^
a3f85190:	207d6b73 	rsbcss	r6, sp, r3, ror fp
a3f85194:	20202020 	eorcs	r2, r0, r0, lsr #32
a3f85198:	53202020 	teqpl	r0, #32	; 0x20
a3f8519c:	46207465 	strmit	r7, [r0], -r5, ror #8
a3f851a0:	6873616c 	ldmvsda	r3!, {r2, r3, r5, r6, r8, sp, lr}^
a3f851a4:	636f4c20 	cmnvs	pc, #8192	; 0x2000
a3f851a8:	69422d6b 	stmvsdb	r2, {r0, r1, r3, r5, r6, r8, sl, fp, sp}^
a3f851ac:	666f2074 	undefined
a3f851b0:	65724120 	ldrvsb	r4, [r2, -#288]!
a3f851b4:	000a2e61 	andeq	r2, sl, r1, ror #28
a3f851b8:	6f6c2020 	swivs	0x006c2020
a3f851bc:	5b206b63 	blpl	a479ff50 <_ld_stack_address+0x79ff50>
a3f851c0:	72646461 	rsbvc	r6, r4, #1627389952	; 0x61000000
a3f851c4:	2020205d 	eorcs	r2, r0, sp, asr r0
a3f851c8:	20202020 	eorcs	r2, r0, r0, lsr #32
a3f851cc:	20202020 	eorcs	r2, r0, r0, lsr #32
a3f851d0:	20202020 	eorcs	r2, r0, r0, lsr #32
a3f851d4:	20202020 	eorcs	r2, r0, r0, lsr #32
a3f851d8:	20202020 	eorcs	r2, r0, r0, lsr #32
a3f851dc:	20202020 	eorcs	r2, r0, r0, lsr #32
a3f851e0:	53202020 	teqpl	r0, #32	; 0x20
a3f851e4:	46207465 	strmit	r7, [r0], -r5, ror #8
a3f851e8:	6873616c 	ldmvsda	r3!, {r2, r3, r5, r6, r8, sp, lr}^
a3f851ec:	636f4c20 	cmnvs	pc, #8192	; 0x2000
a3f851f0:	69422d6b 	stmvsdb	r2, {r0, r1, r3, r5, r6, r8, sl, fp, sp}^
a3f851f4:	666f2074 	undefined
a3f851f8:	656e4f20 	strvsb	r4, [lr, -#3872]!
a3f851fc:	6f6c4220 	swivs	0x006c4220
a3f85200:	0a2e6b63 	beq	a4b1ff94 <_ld_stack_address+0xb1ff94>
a3f85204:	6f6c2020 	swivs	0x006c2020
a3f85208:	5b206b63 	blpl	a479ff9c <_ld_stack_address+0x79ff9c>
a3f8520c:	72646461 	rsbvc	r6, r4, #1627389952	; 0x61000000
a3f85210:	6c5b205d 	mrrcvs	0, 5, r2, fp, cr13
a3f85214:	205d6e65 	subcss	r6, sp, r5, ror #28
a3f85218:	20202020 	eorcs	r2, r0, r0, lsr #32
a3f8521c:	20202020 	eorcs	r2, r0, r0, lsr #32
a3f85220:	20202020 	eorcs	r2, r0, r0, lsr #32
a3f85224:	20202020 	eorcs	r2, r0, r0, lsr #32
a3f85228:	20202020 	eorcs	r2, r0, r0, lsr #32
a3f8522c:	53202020 	teqpl	r0, #32	; 0x20
a3f85230:	46207465 	strmit	r7, [r0], -r5, ror #8
a3f85234:	6873616c 	ldmvsda	r3!, {r2, r3, r5, r6, r8, sp, lr}^
a3f85238:	636f4c20 	cmnvs	pc, #8192	; 0x2000
a3f8523c:	69422d6b 	stmvsdb	r2, {r0, r1, r3, r5, r6, r8, sl, fp, sp}^
a3f85240:	666f2074 	undefined
a3f85244:	6f6c4220 	swivs	0x006c4220
a3f85248:	2e736b63 	cdpcs	11, 7, cr6, cr3, cr3, {3}
a3f8524c:	6c20200a 	stcvs	0, cr2, [r0], -#40
a3f85250:	206b636f 	rsbcs	r6, fp, pc, ror #6
a3f85254:	616f6c7b 	cmnvs	pc, fp, ror ip
a3f85258:	2f726564 	swics	0x00726564
a3f8525c:	6e72656b 	cdpvs	5, 7, cr6, cr2, cr11, {3}
a3f85260:	722f6c65 	eorvc	r6, pc, #25856	; 0x6500
a3f85264:	2f746f6f 	swics	0x00746f6f
a3f85268:	646d6172 	strvsbt	r6, [sp], -#370
a3f8526c:	7d6b7369 	stcvcl	3, cr7, [fp, -#420]!
a3f85270:	20202020 	eorcs	r2, r0, r0, lsr #32
a3f85274:	20202020 	eorcs	r2, r0, r0, lsr #32
a3f85278:	20746553 	rsbcss	r6, r4, r3, asr r5
a3f8527c:	73616c46 	cmnvc	r1, #17920	; 0x4600
a3f85280:	6f4c2068 	swivs	0x004c2068
a3f85284:	422d6b63 	eormi	r6, sp, #101376	; 0x18c00
a3f85288:	6f207469 	swivs	0x00207469
a3f8528c:	72412066 	subvc	r2, r1, #102	; 0x66
a3f85290:	0a2e6165 	beq	a4b1d82c <_ld_stack_address+0xb1d82c>
a3f85294:	00000000 	andeq	r0, r0, r0
a3f85298:	6b636f6c 	blvs	a5861050 <_ld_stack_address+0x1861050>
a3f8529c:	00000000 	andeq	r0, r0, r0
a3f852a0:	72652020 	rsbvc	r2, r5, #32	; 0x20
a3f852a4:	20657361 	rsbcs	r7, r5, r1, ror #6
a3f852a8:	6464615b 	strvsbt	r6, [r4], -#347
a3f852ac:	20205d72 	eorcs	r5, r0, r2, ror sp
a3f852b0:	20202020 	eorcs	r2, r0, r0, lsr #32
a3f852b4:	20202020 	eorcs	r2, r0, r0, lsr #32
a3f852b8:	20202020 	eorcs	r2, r0, r0, lsr #32
a3f852bc:	20202020 	eorcs	r2, r0, r0, lsr #32
a3f852c0:	20202020 	eorcs	r2, r0, r0, lsr #32
a3f852c4:	20202020 	eorcs	r2, r0, r0, lsr #32
a3f852c8:	45202020 	strmi	r2, [r0, -#32]!
a3f852cc:	65736172 	ldrvsb	r6, [r3, -#370]!
a3f852d0:	656e4f20 	strvsb	r4, [lr, -#3872]!
a3f852d4:	616c4620 	cmnvs	ip, r0, lsr #12
a3f852d8:	42206873 	eormi	r6, r0, #7536640	; 0x730000
a3f852dc:	6b636f6c 	blvs	a5861094 <_ld_stack_address+0x1861094>
a3f852e0:	20200a2e 	eorcs	r0, r0, lr, lsr #20
a3f852e4:	73617265 	cmnvc	r1, #1342177286	; 0x50000006
a3f852e8:	615b2065 	cmpvs	fp, r5, rrx
a3f852ec:	5d726464 	cfldrdpl	mvd6, [r2, -#400]!
a3f852f0:	656c5b20 	strvsb	r5, [ip, -#2848]!
a3f852f4:	20205d6e 	eorcs	r5, r0, lr, ror #26
a3f852f8:	20202020 	eorcs	r2, r0, r0, lsr #32
a3f852fc:	20202020 	eorcs	r2, r0, r0, lsr #32
a3f85300:	20202020 	eorcs	r2, r0, r0, lsr #32
a3f85304:	20202020 	eorcs	r2, r0, r0, lsr #32
a3f85308:	20202020 	eorcs	r2, r0, r0, lsr #32
a3f8530c:	61724520 	cmnvs	r2, r0, lsr #10
a3f85310:	46206573 	undefined
a3f85314:	6873616c 	ldmvsda	r3!, {r2, r3, r5, r6, r8, sp, lr}^
a3f85318:	6f6c4220 	swivs	0x006c4220
a3f8531c:	2e736b63 	cdpcs	11, 7, cr6, cr3, cr3, {3}
a3f85320:	6520200a 	strvs	r2, [r0, -#10]!
a3f85324:	65736172 	ldrvsb	r6, [r3, -#370]!
a3f85328:	6f6c7b20 	swivs	0x006c7b20
a3f8532c:	72656461 	rsbvc	r6, r5, #1627389952	; 0x61000000
a3f85330:	72656b2f 	rsbvc	r6, r5, #48128	; 0xbc00
a3f85334:	2f6c656e 	swics	0x006c656e
a3f85338:	746f6f72 	strvcbt	r6, [pc], #3954	; a3f85340 <Ldiv0+0x8c8>
a3f8533c:	6d61722f 	sfmvs	f7, 2, [r1, -#188]!
a3f85340:	6b736964 	blvs	a5c5f8d8 <_ld_stack_address+0x1c5f8d8>
a3f85344:	2020207d 	eorcs	r2, r0, sp, ror r0
a3f85348:	20202020 	eorcs	r2, r0, r0, lsr #32
a3f8534c:	73617245 	cmnvc	r1, #1342177284	; 0x50000004
a3f85350:	6c462065 	mcrrvs	0, 6, r2, r6, cr5
a3f85354:	20687361 	rsbcs	r7, r8, r1, ror #6
a3f85358:	636f6c42 	cmnvs	pc, #16896	; 0x4200
a3f8535c:	6f20736b 	swivs	0x0020736b
a3f85360:	72412066 	subvc	r2, r1, #102	; 0x66
a3f85364:	0a2e6165 	beq	a4b1d900 <_ld_stack_address+0xb1d900>
a3f85368:	00000000 	andeq	r0, r0, r0
a3f8536c:	73617265 	cmnvc	r1, #1342177286	; 0x50000006
a3f85370:	00000065 	andeq	r0, r0, r5, rrx
a3f85374:	6c662020 	stcvsl	0, cr2, [r6], -#128
a3f85378:	20687361 	rsbcs	r7, r8, r1, ror #6
a3f8537c:	616f6c7b 	cmnvs	pc, fp, ror ip
a3f85380:	2f726564 	swics	0x00726564
a3f85384:	6e72656b 	cdpvs	5, 7, cr6, cr2, cr11, {3}
a3f85388:	722f6c65 	eorvc	r6, pc, #25856	; 0x6500
a3f8538c:	2f746f6f 	swics	0x00746f6f
a3f85390:	646d6172 	strvsbt	r6, [sp], -#370
a3f85394:	7d6b7369 	stcvcl	3, cr7, [fp, -#420]!
a3f85398:	20202020 	eorcs	r2, r0, r0, lsr #32
a3f8539c:	43202020 	teqmi	r0, #32	; 0x20
a3f853a0:	2079706f 	rsbcss	r7, r9, pc, rrx
a3f853a4:	46206f74 	undefined
a3f853a8:	6873616c 	ldmvsda	r3!, {r2, r3, r5, r6, r8, sp, lr}^
a3f853ac:	6f726620 	swivs	0x00726620
a3f853b0:	4453206d 	ldrmib	r2, [r3], -#109
a3f853b4:	2e4d4152 	mcrcs	1, 2, r4, cr13, cr2, {2}
a3f853b8:	0000000a 	andeq	r0, r0, sl
a3f853bc:	6c662020 	stcvsl	0, cr2, [r6], -#128
a3f853c0:	20687361 	rsbcs	r7, r8, r1, ror #6
a3f853c4:	616f6c7b 	cmnvs	pc, fp, ror ip
a3f853c8:	2f726564 	swics	0x00726564
a3f853cc:	6e72656b 	cdpvs	5, 7, cr6, cr2, cr11, {3}
a3f853d0:	722f6c65 	eorvc	r6, pc, #25856	; 0x6500
a3f853d4:	2f746f6f 	swics	0x00746f6f
a3f853d8:	646d6172 	strvsbt	r6, [sp], -#370
a3f853dc:	7d6b7369 	stcvcl	3, cr7, [fp, -#420]!
a3f853e0:	20202020 	eorcs	r2, r0, r0, lsr #32
a3f853e4:	43202020 	teqmi	r0, #32	; 0x20
a3f853e8:	2079706f 	rsbcss	r7, r9, pc, rrx
a3f853ec:	46206f74 	undefined
a3f853f0:	6873616c 	ldmvsda	r3!, {r2, r3, r5, r6, r8, sp, lr}^
a3f853f4:	6f726620 	swivs	0x00726620
a3f853f8:	4453206d 	ldrmib	r2, [r3], -#109
a3f853fc:	204d4152 	subcs	r4, sp, r2, asr r1
a3f85400:	4120666f 	teqmi	r0, pc, ror #12
a3f85404:	2e616572 	mcrcs	5, 3, r6, cr1, cr2, {3}
a3f85408:	6620200a 	strvst	r2, [r0], -sl
a3f8540c:	6873616c 	ldmvsda	r3!, {r2, r3, r5, r6, r8, sp, lr}^
a3f85410:	65645b20 	strvsb	r5, [r4, -#2848]!
a3f85414:	205d7473 	subcss	r7, sp, r3, ror r4
a3f85418:	6372735b 	cmnvs	r2, #1811939329	; 0x6c000001
a3f8541c:	6c5b205d 	mrrcvs	0, 5, r2, fp, cr13
a3f85420:	205d6e65 	subcss	r6, sp, r5, ror #28
a3f85424:	20202020 	eorcs	r2, r0, r0, lsr #32
a3f85428:	20202020 	eorcs	r2, r0, r0, lsr #32
a3f8542c:	20202020 	eorcs	r2, r0, r0, lsr #32
a3f85430:	20202020 	eorcs	r2, r0, r0, lsr #32
a3f85434:	79706f43 	ldmvcdb	r0!, {r0, r1, r6, r8, r9, sl, fp, sp, lr}^
a3f85438:	206f7420 	rsbcs	r7, pc, r0, lsr #8
a3f8543c:	73616c46 	cmnvc	r1, #17920	; 0x4600
a3f85440:	72662068 	rsbvc	r2, r6, #104	; 0x68
a3f85444:	73206d6f 	teqvc	r0, #7104	; 0x1bc0
a3f85448:	74206372 	strvct	r6, [r0], -#882
a3f8544c:	6564206f 	strvsb	r2, [r4, -#111]!
a3f85450:	0a2e7473 	beq	a4b22624 <_ld_stack_address+0xb22624>
a3f85454:	00000000 	andeq	r0, r0, r0
a3f85458:	73616c66 	cmnvc	r1, #26112	; 0x6600
a3f8545c:	00000068 	andeq	r0, r0, r8, rrx
a3f85460:	66742020 	ldrvsbt	r2, [r4], -r0, lsr #32
a3f85464:	5b207074 	blpl	a47a163c <_ld_stack_address+0x7a163c>
a3f85468:	656c6966 	strvsb	r6, [ip, -#2406]!
a3f8546c:	6c7b205d 	ldcvsl	0, cr2, [fp], -#372
a3f85470:	6564616f 	strvsb	r6, [r4, -#367]!
a3f85474:	656b2f72 	strvsb	r2, [fp, -#3954]!
a3f85478:	6c656e72 	stcvsl	14, cr6, [r5], -#456
a3f8547c:	6f6f722f 	swivs	0x006f722f
a3f85480:	61722f74 	cmnvs	r2, r4, ror pc
a3f85484:	7369646d 	cmnvc	r9, #1828716544	; 0x6d000000
a3f85488:	52207d6b 	eorpl	r7, r0, #6848	; 0x1ac0
a3f8548c:	54206e75 	strplt	r6, [r0], -#3701
a3f85490:	2e707466 	cdpcs	4, 7, cr7, cr0, cr6, {3}
a3f85494:	74654720 	strvcbt	r4, [r5], -#1824
a3f85498:	6c696620 	stcvsl	6, cr6, [r9], -#128
a3f8549c:	6e612065 	cdpvs	0, 6, cr2, cr1, cr5, {3}
a3f854a0:	74732064 	ldrvcbt	r2, [r3], -#100
a3f854a4:	2065726f 	rsbcs	r7, r5, pc, ror #4
a3f854a8:	41206e69 	teqmi	r0, r9, ror #28
a3f854ac:	2e616572 	mcrcs	5, 3, r6, cr1, cr2, {3}
a3f854b0:	0000000a 	andeq	r0, r0, sl
a3f854b4:	66742020 	ldrvsbt	r2, [r4], -r0, lsr #32
a3f854b8:	5b207074 	blpl	a47a1690 <_ld_stack_address+0x7a1690>
a3f854bc:	656c6966 	strvsb	r6, [ip, -#2406]!
a3f854c0:	6c7b205d 	ldcvsl	0, cr2, [fp], -#372
a3f854c4:	6564616f 	strvsb	r6, [r4, -#367]!
a3f854c8:	656b2f72 	strvsb	r2, [fp, -#3954]!
a3f854cc:	6c656e72 	stcvsl	14, cr6, [r5], -#456
a3f854d0:	6f6f722f 	swivs	0x006f722f
a3f854d4:	61722f74 	cmnvs	r2, r4, ror pc
a3f854d8:	7369646d 	cmnvc	r9, #1828716544	; 0x6d000000
a3f854dc:	52207d6b 	eorpl	r7, r0, #6848	; 0x1ac0
a3f854e0:	54206e75 	strplt	r6, [r0], -#3701
a3f854e4:	2e707466 	cdpcs	4, 7, cr7, cr0, cr6, {3}
a3f854e8:	74654720 	strvcbt	r4, [r5], -#1824
a3f854ec:	6c696620 	stcvsl	6, cr6, [r9], -#128
a3f854f0:	6e612065 	cdpvs	0, 6, cr2, cr1, cr5, {3}
a3f854f4:	74732064 	ldrvcbt	r2, [r3], -#100
a3f854f8:	2065726f 	rsbcs	r7, r5, pc, ror #4
a3f854fc:	41206e69 	teqmi	r0, r9, ror #28
a3f85500:	2e616572 	mcrcs	5, 3, r6, cr1, cr2, {3}
a3f85504:	7420200a 	strvct	r2, [r0], -#10
a3f85508:	20707466 	rsbcss	r7, r0, r6, ror #8
a3f8550c:	6c69665b 	stcvsl	6, cr6, [r9], -#364
a3f85510:	5b205d65 	blpl	a479caac <_ld_stack_address+0x79caac>
a3f85514:	72646461 	rsbvc	r6, r4, #1627389952	; 0x61000000
a3f85518:	2020205d 	eorcs	r2, r0, sp, asr r0
a3f8551c:	20202020 	eorcs	r2, r0, r0, lsr #32
a3f85520:	20202020 	eorcs	r2, r0, r0, lsr #32
a3f85524:	20202020 	eorcs	r2, r0, r0, lsr #32
a3f85528:	20202020 	eorcs	r2, r0, r0, lsr #32
a3f8552c:	20202020 	eorcs	r2, r0, r0, lsr #32
a3f85530:	206e7552 	rsbcs	r7, lr, r2, asr r5
a3f85534:	70746654 	rsbvcs	r6, r4, r4, asr r6
a3f85538:	6547202e 	strvsb	r2, [r7, -#46]
a3f8553c:	69662074 	stmvsdb	r6!, {r2, r4, r5, r6, sp}^
a3f85540:	6120656c 	teqvs	r0, ip, ror #10
a3f85544:	7320646e 	teqvc	r0, #1845493760	; 0x6e000000
a3f85548:	65726f74 	ldrvsb	r6, [r2, -#3956]!
a3f8554c:	206e6920 	rsbcs	r6, lr, r0, lsr #18
a3f85550:	72646461 	rsbvc	r6, r4, #1627389952	; 0x61000000
a3f85554:	00000a2e 	andeq	r0, r0, lr, lsr #20
a3f85558:	70746674 	rsbvcs	r6, r4, r4, ror r6
a3f8555c:	00000000 	andeq	r0, r0, r0
a3f85560:	6f622020 	swivs	0x00622020
a3f85564:	2070746f 	rsbcss	r7, r0, pc, ror #8
a3f85568:	20202020 	eorcs	r2, r0, r0, lsr #32
a3f8556c:	20202020 	eorcs	r2, r0, r0, lsr #32
a3f85570:	20202020 	eorcs	r2, r0, r0, lsr #32
a3f85574:	20202020 	eorcs	r2, r0, r0, lsr #32
a3f85578:	20202020 	eorcs	r2, r0, r0, lsr #32
a3f8557c:	20202020 	eorcs	r2, r0, r0, lsr #32
a3f85580:	20202020 	eorcs	r2, r0, r0, lsr #32
a3f85584:	20202020 	eorcs	r2, r0, r0, lsr #32
a3f85588:	52202020 	eorpl	r2, r0, #32	; 0x20
a3f8558c:	42206e75 	eormi	r6, r0, #1872	; 0x750
a3f85590:	70746f6f 	rsbvcs	r6, r4, pc, ror #30
a3f85594:	6547202e 	strvsb	r2, [r7, -#46]
a3f85598:	70692074 	rsbvc	r2, r9, r4, ror r0
a3f8559c:	646e6120 	strvsbt	r6, [lr], -#288
a3f855a0:	736f6820 	cmnvc	pc, #2097152	; 0x200000
a3f855a4:	6e692074 	mcrvs	0, 3, r2, cr9, cr4, {3}
a3f855a8:	616d6f66 	cmnvs	sp, r6, ror #30
a3f855ac:	6e6f6974 	mcrvs	9, 3, r6, cr15, cr4, {3}
a3f855b0:	00000a2e 	andeq	r0, r0, lr, lsr #20
a3f855b4:	746f6f62 	strvcbt	r6, [pc], #3938	; a3f855bc <Ldiv0+0xb44>
a3f855b8:	00000070 	andeq	r0, r0, r0, ror r0
a3f855bc:	65722020 	ldrvsb	r2, [r2, -#32]!
a3f855c0:	64616f6c 	strvsbt	r6, [r1], -#3948
a3f855c4:	656b7b20 	strvsb	r7, [fp, -#2848]!
a3f855c8:	6c656e72 	stcvsl	14, cr6, [r5], -#456
a3f855cc:	6d61722f 	sfmvs	f7, 2, [r1, -#188]!
a3f855d0:	6b736964 	blvs	a5c5fb68 <_ld_stack_address+0x1c5fb68>
a3f855d4:	2020207d 	eorcs	r2, r0, sp, ror r0
a3f855d8:	20202020 	eorcs	r2, r0, r0, lsr #32
a3f855dc:	43202020 	teqmi	r0, #32	; 0x20
a3f855e0:	2079706f 	rsbcss	r7, r9, pc, rrx
a3f855e4:	53206f74 	teqpl	r0, #464	; 0x1d0
a3f855e8:	4d415244 	sfmmi	f5, 2, [r1, -#272]
a3f855ec:	6f726620 	swivs	0x00726620
a3f855f0:	6c46206d 	mcrrvs	0, 6, r2, r6, cr13
a3f855f4:	20687361 	rsbcs	r7, r8, r1, ror #6
a3f855f8:	41206e69 	teqmi	r0, r9, ror #28
a3f855fc:	2e616572 	mcrcs	5, 3, r6, cr1, cr2, {3}
a3f85600:	0000000a 	andeq	r0, r0, sl
a3f85604:	6f6c6572 	swivs	0x006c6572
a3f85608:	00006461 	andeq	r6, r0, r1, ror #8
a3f8560c:	78722020 	ldmvcda	r2!, {r5, sp}^
a3f85610:	6f6c7b20 	swivs	0x006c7b20
a3f85614:	72656461 	rsbvc	r6, r5, #1627389952	; 0x61000000
a3f85618:	72656b2f 	rsbvc	r6, r5, #48128	; 0xbc00
a3f8561c:	2f6c656e 	swics	0x006c656e
a3f85620:	646d6172 	strvsbt	r6, [sp], -#370
a3f85624:	2f6b7369 	swics	0x006b7369
a3f85628:	746f6f72 	strvcbt	r6, [pc], #3954	; a3f85630 <Ldiv0+0xbb8>
a3f8562c:	2020207d 	eorcs	r2, r0, sp, ror r0
a3f85630:	20202020 	eorcs	r2, r0, r0, lsr #32
a3f85634:	52202020 	eorpl	r2, r0, #32	; 0x20
a3f85638:	69656365 	stmvsdb	r5!, {r0, r2, r5, r6, r8, r9, sp, lr}^
a3f8563c:	20736576 	rsbcss	r6, r3, r6, ror r5
a3f85640:	656c6966 	strvsb	r6, [ip, -#2406]!
a3f85644:	74697720 	strvcbt	r7, [r9], -#1824
a3f85648:	4d582068 	ldcmil	0, cr2, [r8, -#416]
a3f8564c:	4d45444f 	cfstrdmi	mvd4, [r5, -#316]
a3f85650:	6f727020 	swivs	0x00727020
a3f85654:	6f636f74 	swivs	0x00636f74
a3f85658:	000a2e6c 	andeq	r2, sl, ip, ror #28
a3f8565c:	00007872 	andeq	r7, r0, r2, ror r8
a3f85660:	6f642020 	swivs	0x00642020
a3f85664:	6f6c6e77 	swivs	0x006c6e77
a3f85668:	7b206461 	blvc	a479e7f4 <_ld_stack_address+0x79e7f4>
a3f8566c:	64616f6c 	strvsbt	r6, [r1], -#3948
a3f85670:	6b2f7265 	blvs	a4b6200c <_ld_stack_address+0xb6200c>
a3f85674:	656e7265 	strvsb	r7, [lr, -#613]!
a3f85678:	61722f6c 	cmnvs	r2, ip, ror #30
a3f8567c:	7369646d 	cmnvc	r9, #1828716544	; 0x6d000000
a3f85680:	6f722f6b 	swivs	0x00722f6b
a3f85684:	207d746f 	rsbcss	r7, sp, pc, ror #8
a3f85688:	44202020 	strmit	r2, [r0], -#32
a3f8568c:	6c6e776f 	stcvsl	7, cr7, [lr], -#444
a3f85690:	2064616f 	rsbcs	r6, r4, pc, ror #2
a3f85694:	6e455555 	mcrvs	5, 2, r5, cr5, cr5, {2}
a3f85698:	65646f63 	strvsb	r6, [r4, -#3939]!
a3f8569c:	61642064 	cmnvs	r4, r4, rrx
a3f856a0:	69206174 	stmvsdb	r0!, {r2, r4, r5, r6, r8, sp, lr}
a3f856a4:	6573206e 	ldrvsb	r2, [r3, -#110]!
a3f856a8:	6c616972 	stcvsl	9, cr6, [r1], -#456
a3f856ac:	00000a2e 	andeq	r0, r0, lr, lsr #20
a3f856b0:	6f642020 	swivs	0x00642020
a3f856b4:	6f6c6e77 	swivs	0x006c6e77
a3f856b8:	7b206461 	blvc	a479e844 <_ld_stack_address+0x79e844>
a3f856bc:	64616f6c 	strvsbt	r6, [r1], -#3948
a3f856c0:	6b2f7265 	blvs	a4b6205c <_ld_stack_address+0xb6205c>
a3f856c4:	656e7265 	strvsb	r7, [lr, -#613]!
a3f856c8:	61722f6c 	cmnvs	r2, ip, ror #30
a3f856cc:	7369646d 	cmnvc	r9, #1828716544	; 0x6d000000
a3f856d0:	6f722f6b 	swivs	0x00722f6b
a3f856d4:	207d746f 	rsbcss	r7, sp, pc, ror #8
a3f856d8:	44202020 	strmit	r2, [r0], -#32
a3f856dc:	6c6e776f 	stcvsl	7, cr7, [lr], -#444
a3f856e0:	2064616f 	rsbcs	r6, r4, pc, ror #2
a3f856e4:	6e455555 	mcrvs	5, 2, r5, cr5, cr5, {2}
a3f856e8:	65646f63 	strvsb	r6, [r4, -#3939]!
a3f856ec:	61642064 	cmnvs	r4, r4, rrx
a3f856f0:	69206174 	stmvsdb	r0!, {r2, r4, r5, r6, r8, sp, lr}
a3f856f4:	6573206e 	ldrvsb	r2, [r3, -#110]!
a3f856f8:	6c616972 	stcvsl	9, cr6, [r1], -#456
a3f856fc:	20200a2e 	eorcs	r0, r0, lr, lsr #20
a3f85700:	6e776f64 	cdpvs	15, 7, cr6, cr7, cr4, {3}
a3f85704:	64616f6c 	strvsbt	r6, [r1], -#3948
a3f85708:	64615b20 	strvsbt	r5, [r1], -#2848
a3f8570c:	205d7264 	subcss	r7, sp, r4, ror #4
a3f85710:	78616d5b 	stmvcda	r1!, {r0, r1, r3, r4, r6, r8, sl, fp, sp, lr}^
a3f85714:	5d6e656c 	cfstr64pl	mvdx6, [lr, -#432]!
a3f85718:	20202020 	eorcs	r2, r0, r0, lsr #32
a3f8571c:	20202020 	eorcs	r2, r0, r0, lsr #32
a3f85720:	20202020 	eorcs	r2, r0, r0, lsr #32
a3f85724:	20202020 	eorcs	r2, r0, r0, lsr #32
a3f85728:	776f4420 	strvcb	r4, [pc, -r0, lsr #8]!
a3f8572c:	616f6c6e 	cmnvs	pc, lr, ror #24
a3f85730:	55552064 	ldrplb	r2, [r5, -#100]
a3f85734:	6f636e45 	swivs	0x00636e45
a3f85738:	20646564 	rsbcs	r6, r4, r4, ror #10
a3f8573c:	61746164 	cmnvs	r4, r4, ror #2
a3f85740:	206e6920 	rsbcs	r6, lr, r0, lsr #18
a3f85744:	69726573 	ldmvsdb	r2!, {r0, r1, r4, r5, r6, r8, sl, sp, lr}^
a3f85748:	0a2e6c61 	beq	a4b208d4 <_ld_stack_address+0xb208d4>
a3f8574c:	00000000 	andeq	r0, r0, r0
a3f85750:	6e776f64 	cdpvs	15, 7, cr6, cr7, cr4, {3}
a3f85754:	64616f6c 	strvsbt	r6, [r1], -#3948
a3f85758:	00000000 	andeq	r0, r0, r0
a3f8575c:	50594858 	subpls	r4, r9, r8, asr r8
a3f85760:	35325245 	ldrcc	r5, [r2, -#581]!
a3f85764:	203e4235 	eorcss	r4, lr, r5, lsr r2
a3f85768:	00000000 	andeq	r0, r0, r0
a3f8576c:	0000000a 	andeq	r0, r0, sl
a3f85770:	00082008 	andeq	r2, r8, r8
a3f85774:	00006325 	andeq	r6, r0, r5, lsr #6
a3f85778:	6174530a 	cmnvs	r4, sl, lsl #6
a3f8577c:	6e697472 	mcrvs	4, 3, r7, cr9, cr2, {3}
a3f85780:	656b2067 	strvsb	r2, [fp, -#103]!
a3f85784:	6c656e72 	stcvsl	14, cr6, [r5], -#456
a3f85788:	2e2e2e20 	cdpcs	14, 2, cr2, cr14, cr0, {1}
a3f8578c:	00000a0a 	andeq	r0, r0, sl, lsl #20
a3f85790:	2c796548 	cfldr64cs	mvdx6, [r9], -#288
a3f85794:	65687420 	strvsb	r7, [r8, -#1056]!
a3f85798:	72656b20 	rsbvc	r6, r5, #32768	; 0x8000
a3f8579c:	206c656e 	rsbcs	r6, ip, lr, ror #10
a3f857a0:	75746572 	ldrvcb	r6, [r4, -#1394]!
a3f857a4:	64656e72 	strvsbt	r6, [r5], -#3698
a3f857a8:	68542021 	ldmvsda	r4, {r0, r5, sp}^
a3f857ac:	73207369 	teqvc	r0, #-1543503871	; 0xa4000001
a3f857b0:	6c756f68 	ldcvsl	15, cr6, [r5], -#416
a3f857b4:	6f6e2064 	swivs	0x006e2064
a3f857b8:	61682074 	cmnvs	r8, r4, ror r0
a3f857bc:	6e657070 	mcrvs	0, 3, r7, cr5, cr0, {3}
a3f857c0:	00000a2e 	andeq	r0, r0, lr, lsr #20
a3f857c4:	20202020 	eorcs	r2, r0, r0, lsr #32
a3f857c8:	20202020 	eorcs	r2, r0, r0, lsr #32
a3f857cc:	631b2020 	tstvs	fp, #32	; 0x20
a3f857d0:	00000000 	andeq	r0, r0, r0
a3f857d4:	0000631b 	andeq	r6, r0, fp, lsl r3
a3f857d8:	74736552 	ldrvcbt	r6, [r3], -#1362
a3f857dc:	69747261 	ldmvsdb	r4!, {r0, r5, r6, r9, ip, sp, lr}^
a3f857e0:	2e2e676e 	cdpcs	7, 2, cr6, cr14, cr14, {3}
a3f857e4:	000a0d2e 	andeq	r0, sl, lr, lsr #26
a3f857e8:	6e72656b 	cdpvs	5, 7, cr6, cr2, cr11, {3}
a3f857ec:	00006c65 	andeq	r6, r0, r5, ror #24
a3f857f0:	64616f4c 	strvsbt	r6, [r1], -#3916
a3f857f4:	20676e69 	rsbcs	r6, r7, r9, ror #28
a3f857f8:	6e72656b 	cdpvs	5, 7, cr6, cr2, cr11, {3}
a3f857fc:	66206c65 	strvst	r6, [r0], -r5, ror #24
a3f85800:	206d6f72 	rsbcs	r6, sp, r2, ror pc
a3f85804:	73616c66 	cmnvc	r1, #26112	; 0x6600
a3f85808:	2e2e2e68 	cdpcs	14, 2, cr2, cr14, cr8, {3}
a3f8580c:	0000000a 	andeq	r0, r0, sl
a3f85810:	646d6172 	strvsbt	r6, [sp], -#370
a3f85814:	006b7369 	rsbeq	r7, fp, r9, ror #6
a3f85818:	64616f4c 	strvsbt	r6, [r1], -#3916
a3f8581c:	20676e69 	rsbcs	r6, r7, r9, ror #28
a3f85820:	646d6172 	strvsbt	r6, [sp], -#370
a3f85824:	206b7369 	rsbcs	r7, fp, r9, ror #6
a3f85828:	6d6f7266 	sfmvs	f7, 2, [pc, -#408]!
a3f8582c:	616c6620 	cmnvs	ip, r0, lsr #12
a3f85830:	2e2e6873 	mcrcs	8, 1, r6, cr14, cr3, {3}
a3f85834:	00000a2e 	andeq	r0, r0, lr, lsr #20
a3f85838:	656e6f44 	strvsb	r6, [lr, -#3908]!
a3f8583c:	00000a2e 	andeq	r0, r0, lr, lsr #20
a3f85840:	08080808 	stmeqda	r8, {r3, fp}
a3f85844:	08080808 	stmeqda	r8, {r3, fp}
a3f85848:	08080808 	stmeqda	r8, {r3, fp}
a3f8584c:	08080808 	stmeqda	r8, {r3, fp}
a3f85850:	08080808 	stmeqda	r8, {r3, fp}
a3f85854:	08080808 	stmeqda	r8, {r3, fp}
a3f85858:	08080808 	stmeqda	r8, {r3, fp}
a3f8585c:	08080808 	stmeqda	r8, {r3, fp}
a3f85860:	08080808 	stmeqda	r8, {r3, fp}
a3f85864:	08080808 	stmeqda	r8, {r3, fp}
a3f85868:	08080808 	stmeqda	r8, {r3, fp}
a3f8586c:	08080808 	stmeqda	r8, {r3, fp}
a3f85870:	08080808 	stmeqda	r8, {r3, fp}
a3f85874:	08080808 	stmeqda	r8, {r3, fp}
a3f85878:	08080808 	stmeqda	r8, {r3, fp}
a3f8587c:	00000000 	andeq	r0, r0, r0
a3f85880:	746f6f42 	strvcbt	r6, [pc], #3906	; a3f85888 <Ldiv0+0xe10>
a3f85884:	64616f6c 	strvsbt	r6, [r1], -#3948
a3f85888:	20207265 	eorcs	r7, r0, r5, ror #4
a3f8588c:	20202020 	eorcs	r2, r0, r0, lsr #32
a3f85890:	3a202020 	bcc	a478d918 <_ld_stack_address+0x78d918>
a3f85894:	59485820 	stmpldb	r8, {r5, fp, ip, lr}^
a3f85898:	32524550 	subccs	r4, r2, #335544320	; 0x14000000
a3f8589c:	0a423535 	beq	a5012d78 <_ld_stack_address+0x1012d78>
a3f858a0:	00000000 	andeq	r0, r0, r0
a3f858a4:	73726556 	cmnvc	r2, #360710144	; 0x15800000
a3f858a8:	206e6f69 	rsbcs	r6, lr, r9, ror #30
a3f858ac:	20202020 	eorcs	r2, r0, r0, lsr #32
a3f858b0:	20202020 	eorcs	r2, r0, r0, lsr #32
a3f858b4:	3a202020 	bcc	a478d93c <_ld_stack_address+0x78d93c>
a3f858b8:	0a315220 	beq	a4bda140 <_ld_stack_address+0xbda140>
a3f858bc:	00000000 	andeq	r0, r0, r0
a3f858c0:	6e72656b 	cdpvs	5, 7, cr6, cr2, cr11, {3}
a3f858c4:	00006c65 	andeq	r6, r0, r5, ror #24
a3f858c8:	69766153 	ldmvsdb	r6!, {r0, r1, r4, r6, r8, sp, lr}^
a3f858cc:	6b20676e 	blvs	a479f68c <_ld_stack_address+0x79f68c>
a3f858d0:	656e7265 	strvsb	r7, [lr, -#613]!
a3f858d4:	6f74206c 	swivs	0x0074206c
a3f858d8:	616c6620 	cmnvs	ip, r0, lsr #12
a3f858dc:	2e2e6873 	mcrcs	8, 1, r6, cr14, cr3, {3}
a3f858e0:	00000a2e 	andeq	r0, r0, lr, lsr #20
a3f858e4:	746f6f72 	strvcbt	r6, [pc], #3954	; a3f858ec <Ldiv0+0xe74>
a3f858e8:	00000000 	andeq	r0, r0, r0
a3f858ec:	69766153 	ldmvsdb	r6!, {r0, r1, r4, r6, r8, sp, lr}^
a3f858f0:	7220676e 	eorvc	r6, r0, #28835840	; 0x1b80000
a3f858f4:	20746f6f 	rsbcss	r6, r4, pc, ror #30
a3f858f8:	66206f74 	undefined
a3f858fc:	6873616c 	ldmvsda	r3!, {r2, r3, r5, r6, r8, sp, lr}^
a3f85900:	0a2e2e2e 	beq	a4b111c0 <_ld_stack_address+0xb111c0>
a3f85904:	00000000 	andeq	r0, r0, r0
a3f85908:	64616f6c 	strvsbt	r6, [r1], -#3948
a3f8590c:	00007265 	andeq	r7, r0, r5, ror #4
a3f85910:	69766153 	ldmvsdb	r6!, {r0, r1, r4, r6, r8, sp, lr}^
a3f85914:	6220676e 	eorvs	r6, r0, #28835840	; 0x1b80000
a3f85918:	6c746f6f 	ldcvsl	15, cr6, [r4], -#444
a3f8591c:	6564616f 	strvsb	r6, [r4, -#367]!
a3f85920:	6f742072 	swivs	0x00742072
a3f85924:	616c6620 	cmnvs	ip, r0, lsr #12
a3f85928:	2e2e6873 	mcrcs	8, 1, r6, cr14, cr3, {3}
a3f8592c:	00000a2e 	andeq	r0, r0, lr, lsr #20
a3f85930:	646d6172 	strvsbt	r6, [sp], -#370
a3f85934:	006b7369 	rsbeq	r7, fp, r9, ror #6
a3f85938:	69766153 	ldmvsdb	r6!, {r0, r1, r4, r6, r8, sp, lr}^
a3f8593c:	7220676e 	eorvc	r6, r0, #28835840	; 0x1b80000
a3f85940:	69646d61 	stmvsdb	r4!, {r0, r5, r6, r8, sl, fp, sp, lr}^
a3f85944:	74206b73 	strvct	r6, [r0], -#2931
a3f85948:	6c66206f 	stcvsl	0, cr2, [r6], -#444
a3f8594c:	2e687361 	cdpcs	3, 6, cr7, cr8, cr1, {3}
a3f85950:	000a2e2e 	andeq	r2, sl, lr, lsr #28
a3f85954:	74736564 	ldrvcbt	r6, [r3], -#1380
a3f85958:	20736920 	rsbcss	r6, r3, r0, lsr #18
a3f8595c:	20746f6e 	rsbcss	r6, r4, lr, ror #30
a3f85960:	73616c46 	cmnvc	r1, #17920	; 0x4600
a3f85964:	6c422068 	mcrrvs	0, 6, r2, r2, cr8
a3f85968:	206b636f 	rsbcs	r6, fp, pc, ror #6
a3f8596c:	65736142 	ldrvsb	r6, [r3, -#322]!
a3f85970:	00000a2e 	andeq	r0, r0, lr, lsr #20
a3f85974:	73617245 	cmnvc	r1, #1342177284	; 0x50000004
a3f85978:	6c662065 	stcvsl	0, cr2, [r6], -#404
a3f8597c:	20687361 	rsbcs	r7, r8, r1, ror #6
a3f85980:	636f6c62 	cmnvs	pc, #25088	; 0x6200
a3f85984:	6620736b 	strvst	r7, [r0], -fp, ror #6
a3f85988:	206d6f72 	rsbcs	r6, sp, r2, ror pc
a3f8598c:	30257830 	eorcc	r7, r5, r0, lsr r8
a3f85990:	20786c38 	rsbcss	r6, r8, r8, lsr ip
a3f85994:	30206f74 	eorcc	r6, r0, r4, ror pc
a3f85998:	38302578 	ldmccda	r0!, {r3, r4, r5, r6, r8, sl, sp}
a3f8599c:	0a2e786c 	beq	a4b23b54 <_ld_stack_address+0xb23b54>
a3f859a0:	00000000 	andeq	r0, r0, r0
a3f859a4:	6e6f4409 	cdpvs	4, 6, cr4, cr15, cr9, {0}
a3f859a8:	000a2e65 	andeq	r2, sl, r5, ror #28
a3f859ac:	74697257 	strvcbt	r7, [r9], -#599
a3f859b0:	6f742065 	swivs	0x00742065
a3f859b4:	616c6620 	cmnvs	ip, r0, lsr #12
a3f859b8:	2e2e6873 	mcrcs	8, 1, r6, cr14, cr3, {3}
a3f859bc:	00000a2e 	andeq	r0, r0, lr, lsr #20
a3f859c0:	69725709 	ldmvsdb	r2!, {r0, r3, r8, r9, sl, ip, lr}^
a3f859c4:	676e6974 	undefined
a3f859c8:	20746120 	rsbcss	r6, r4, r0, lsr #2
a3f859cc:	30257830 	eorcc	r7, r5, r0, lsr r8
a3f859d0:	2e786c38 	mrccs	12, 3, r6, cr8, cr8, {1}
a3f859d4:	00002e2e 	andeq	r2, r0, lr, lsr #28
a3f859d8:	69725709 	ldmvsdb	r2!, {r0, r3, r8, r9, sl, ip, lr}^
a3f859dc:	676e6974 	undefined
a3f859e0:	20746120 	rsbcss	r6, r4, r0, lsr #2
a3f859e4:	30257830 	eorcc	r7, r5, r0, lsr r8
a3f859e8:	0d786c38 	ldceql	12, cr6, [r8, -#224]!
a3f859ec:	0000000a 	andeq	r0, r0, sl
a3f859f0:	6e6f4409 	cdpvs	4, 6, cr4, cr15, cr9, {0}
a3f859f4:	00000a65 	andeq	r0, r0, r5, ror #20
a3f859f8:	61724509 	cmnvs	r2, r9, lsl #10
a3f859fc:	42206573 	eormi	r6, r0, #482344960	; 0x1cc00000
a3f85a00:	6b636f6c 	blvs	a58617b8 <_ld_stack_address+0x18617b8>
a3f85a04:	20746120 	rsbcss	r6, r4, r0, lsr #2
a3f85a08:	7830203a 	ldmvcda	r0!, {r1, r3, r4, r5, sp}
a3f85a0c:	6c383025 	ldcvs	0, cr3, [r8], -#148
a3f85a10:	00002e78 	andeq	r2, r0, r8, ror lr
a3f85a14:	0000000a 	andeq	r0, r0, sl
a3f85a18:	72646461 	rsbvc	r6, r4, #1627389952	; 0x61000000
a3f85a1c:	20736920 	rsbcss	r6, r3, r0, lsr #18
a3f85a20:	20746f6e 	rsbcss	r6, r4, lr, ror #30
a3f85a24:	73616c66 	cmnvc	r1, #26112	; 0x6600
a3f85a28:	6c622068 	stcvsl	0, cr2, [r2], -#416
a3f85a2c:	206b636f 	rsbcs	r6, fp, pc, ror #6
a3f85a30:	65736162 	ldrvsb	r6, [r3, -#354]!
a3f85a34:	00000a2e 	andeq	r0, r0, lr, lsr #20
a3f85a38:	636f6c42 	cmnvs	pc, #16896	; 0x4200
a3f85a3c:	6f4c206b 	swivs	0x004c206b
a3f85a40:	622d6b63 	eorvs	r6, sp, #101376	; 0x18c00
a3f85a44:	64207469 	strvst	r7, [r0], -#1129
a3f85a48:	63657465 	cmnvs	r5, #1694498816	; 0x65000000
a3f85a4c:	2e646574 	mcrcs	5, 3, r6, cr4, cr4, {3}
a3f85a50:	00000a0a 	andeq	r0, r0, sl, lsl #20
a3f85a54:	746c6f56 	strvcbt	r6, [ip], -#3926
a3f85a58:	20656761 	rsbcs	r6, r5, r1, ror #14
a3f85a5c:	676e6152 	undefined
a3f85a60:	72452065 	subvc	r2, r5, #101	; 0x65
a3f85a64:	2e726f72 	mrccs	15, 3, r6, cr2, cr2, {3}
a3f85a68:	00000a0a 	andeq	r0, r0, sl, lsl #20
a3f85a6c:	6d6d6f43 	stcvsl	15, cr6, [sp, -#268]!
a3f85a70:	20646e61 	rsbcs	r6, r4, r1, ror #28
a3f85a74:	75716553 	ldrvcb	r6, [r1, -#1363]!
a3f85a78:	65636e65 	strvsb	r6, [r3, -#3685]!
a3f85a7c:	72724520 	rsbvcs	r4, r2, #134217728	; 0x8000000
a3f85a80:	0a2e726f 	beq	a4b22444 <_ld_stack_address+0xb22444>
a3f85a84:	0000000a 	andeq	r0, r0, sl
a3f85a88:	6972570a 	ldmvsdb	r2!, {r1, r3, r8, r9, sl, ip, lr}^
a3f85a8c:	65206574 	strvs	r6, [r0, -#1396]!
a3f85a90:	726f7272 	rsbvc	r7, pc, #536870919	; 0x20000007
a3f85a94:	20746120 	rsbcss	r6, r4, r0, lsr #2
a3f85a98:	72646461 	rsbvc	r6, r4, #1627389952	; 0x61000000
a3f85a9c:	20737365 	rsbcss	r7, r3, r5, ror #6
a3f85aa0:	30257830 	eorcc	r7, r5, r0, lsr r8
a3f85aa4:	0a786c38 	beq	a5da0b8c <_ld_stack_address+0x1da0b8c>
a3f85aa8:	0000000a 	andeq	r0, r0, sl
a3f85aac:	20746553 	rsbcss	r6, r4, r3, asr r5
a3f85ab0:	6b636f4c 	blvs	a58617e8 <_ld_stack_address+0x18617e8>
a3f85ab4:	7469422d 	strvcbt	r4, [r9], -#557
a3f85ab8:	72724520 	rsbvcs	r4, r2, #134217728	; 0x8000000
a3f85abc:	0a2e726f 	beq	a4b22480 <_ld_stack_address+0xb22480>
a3f85ac0:	0000000a 	andeq	r0, r0, sl
a3f85ac4:	6c696146 	stfvse	f6, [r9], -#280
a3f85ac8:	206f7420 	rsbcs	r7, pc, r0, lsr #8
a3f85acc:	73617265 	cmnvc	r1, #1342177286	; 0x50000006
a3f85ad0:	72202e65 	eorvc	r2, r0, #1616	; 0x650
a3f85ad4:	79727465 	ldmvcdb	r2!, {r0, r2, r5, r6, sl, ip, sp, lr}^
a3f85ad8:	61676120 	cmnvs	r7, r0, lsr #2
a3f85adc:	0a2e6e69 	beq	a4b21488 <_ld_stack_address+0xb21488>
a3f85ae0:	0000000a 	andeq	r0, r0, sl
a3f85ae4:	61656c43 	cmnvs	r5, r3, asr #24
a3f85ae8:	6f4c2072 	swivs	0x004c2072
a3f85aec:	422d6b63 	eormi	r6, sp, #101376	; 0x18c00
a3f85af0:	45207469 	strmi	r7, [r0, -#1129]!
a3f85af4:	726f7272 	rsbvc	r7, pc, #536870919	; 0x20000007
a3f85af8:	000a0a2e 	andeq	r0, sl, lr, lsr #20
a3f85afc:	6e6b6e55 	mcrvs	14, 3, r6, cr11, cr5, {2}
a3f85b00:	206e776f 	rsbcs	r7, lr, pc, ror #14
a3f85b04:	6f727245 	swivs	0x00727245
a3f85b08:	0a0a2e72 	beq	a42114d8 <_ld_stack_address+0x2114d8>
a3f85b0c:	00000000 	andeq	r0, r0, r0
a3f85b10:	00007830 	andeq	r7, r0, r0, lsr r8
a3f85b14:	0000000a 	andeq	r0, r0, sl
a3f85b18:	7366664f 	cmnvc	r6, #82837504	; 0x4f00000
a3f85b1c:	20207465 	eorcs	r7, r0, r5, ror #8
a3f85b20:	20202020 	eorcs	r2, r0, r0, lsr #32
a3f85b24:	20786548 	rsbcss	r6, r8, r8, asr #10
a3f85b28:	756c6156 	strvcb	r6, [ip, -#342]!
a3f85b2c:	20202065 	eorcs	r2, r0, r5, rrx
a3f85b30:	20202020 	eorcs	r2, r0, r0, lsr #32
a3f85b34:	20202020 	eorcs	r2, r0, r0, lsr #32
a3f85b38:	20202020 	eorcs	r2, r0, r0, lsr #32
a3f85b3c:	20202020 	eorcs	r2, r0, r0, lsr #32
a3f85b40:	20202020 	eorcs	r2, r0, r0, lsr #32
a3f85b44:	20202020 	eorcs	r2, r0, r0, lsr #32
a3f85b48:	20202020 	eorcs	r2, r0, r0, lsr #32
a3f85b4c:	20202020 	eorcs	r2, r0, r0, lsr #32
a3f85b50:	20202020 	eorcs	r2, r0, r0, lsr #32
a3f85b54:	63734120 	cmnvs	r3, #8	; 0x8
a3f85b58:	76206969 	strvct	r6, [r0], -r9, ror #18
a3f85b5c:	65756c61 	ldrvsb	r6, [r5, -#3169]!
a3f85b60:	0000000a 	andeq	r0, r0, sl
a3f85b64:	30257830 	eorcc	r7, r5, r0, lsr r8
a3f85b68:	20786c38 	rsbcss	r6, r8, r8, lsr ip
a3f85b6c:	00000020 	andeq	r0, r0, r0, lsr #32
a3f85b70:	78323025 	ldmvcda	r2!, {r0, r2, r5, ip, sp}
a3f85b74:	00000020 	andeq	r0, r0, r0, lsr #32
a3f85b78:	00000020 	andeq	r0, r0, r0, lsr #32
a3f85b7c:	00006325 	andeq	r6, r0, r5, lsr #6
a3f85b80:	0000002e 	andeq	r0, r0, lr, lsr #32
a3f85b84:	00202020 	eoreq	r2, r0, r0, lsr #32
a3f85b88:	00000a0a 	andeq	r0, r0, sl, lsl #20
a3f85b8c:	59485820 	stmpldb	r8, {r5, fp, ip, lr}^
a3f85b90:	32524550 	subccs	r4, r2, #335544320	; 0x14000000
a3f85b94:	2d423535 	cfstr64cs	mvdx3, [r2, -#212]
a3f85b98:	200a3152 	andcs	r3, sl, r2, asr r1
a3f85b9c:	79706f43 	ldmvcdb	r0!, {r0, r1, r6, r8, r9, sl, fp, sp, lr}^
a3f85ba0:	68676972 	stmvsda	r7!, {r1, r4, r5, r6, r8, fp, sp, lr}^
a3f85ba4:	43282074 	teqmi	r8, #116	; 0x74
a3f85ba8:	30322029 	eorccs	r2, r2, r9, lsr #32
a3f85bac:	48203230 	stmmida	r0!, {r4, r5, r9, ip, sp}
a3f85bb0:	73756279 	cmnvc	r5, #-1879048185	; 0x90000007
a3f85bb4:	2c6f4320 	stccsl	3, cr4, [pc], -#128
a3f85bb8:	746c202e 	strvcbt	r2, [ip], -#46
a3f85bbc:	000a2e64 	andeq	r2, sl, r4, ror #28
a3f85bc0:	70755320 	rsbvcs	r5, r5, r0, lsr #6
a3f85bc4:	74726f70 	ldrvcbt	r6, [r2], -#3952
a3f85bc8:	7468203a 	strvcbt	r2, [r8], -#58
a3f85bcc:	2f3a7074 	swics	0x003a7074
a3f85bd0:	7777772f 	ldrvcb	r7, [r7, -pc, lsr #14]!
a3f85bd4:	6279682e 	rsbvss	r6, r9, #3014656	; 0x2e0000
a3f85bd8:	6e2e7375 	mcrvs	3, 1, r7, cr14, cr5, {3}
a3f85bdc:	000a7465 	andeq	r7, sl, r5, ror #8
a3f85be0:	0000000a 	andeq	r0, r0, sl
a3f85be4:	6f747541 	swivs	0x00747541
a3f85be8:	746f6f62 	strvcbt	r6, [pc], #3938	; a3f85bf0 <Ldiv0+0x1178>
a3f85bec:	206e6920 	rsbcs	r6, lr, r0, lsr #18
a3f85bf0:	676f7270 	undefined
a3f85bf4:	73736572 	cmnvc	r3, #478150656	; 0x1c800000
a3f85bf8:	7270202c 	rsbvcs	r2, r0, #44	; 0x2c
a3f85bfc:	20737365 	rsbcss	r7, r3, r5, ror #6
a3f85c00:	20796e61 	rsbcss	r6, r9, r1, ror #28
a3f85c04:	2079656b 	rsbcss	r6, r9, fp, ror #10
a3f85c08:	73206f74 	teqvc	r0, #464	; 0x1d0
a3f85c0c:	20706f74 	rsbcss	r6, r0, r4, ror pc
a3f85c10:	00000000 	andeq	r0, r0, r0
a3f85c14:	0000002e 	andeq	r0, r0, lr, lsr #32
a3f85c18:	6f747541 	swivs	0x00747541
a3f85c1c:	746f6f62 	strvcbt	r6, [pc], #3938	; a3f85c24 <Ldiv0+0x11ac>
a3f85c20:	61747320 	cmnvs	r4, r0, lsr #6
a3f85c24:	64657472 	strvsbt	r7, [r5], -#1138
a3f85c28:	00000a2e 	andeq	r0, r0, lr, lsr #20
a3f85c2c:	746f6f62 	strvcbt	r6, [pc], #3938	; a3f85c34 <Ldiv0+0x11bc>
a3f85c30:	00000000 	andeq	r0, r0, r0
a3f85c34:	7475410a 	ldrvcbt	r4, [r5], -#266
a3f85c38:	6f6f626f 	swivs	0x006f626f
a3f85c3c:	62612074 	rsbvs	r2, r1, #116	; 0x74
a3f85c40:	6574726f 	ldrvsb	r7, [r4, -#623]!
a3f85c44:	00000a64 	andeq	r0, r0, r4, ror #20
a3f85c48:	65707954 	ldrvsb	r7, [r0, -#2388]!
a3f85c4c:	65682220 	strvsb	r2, [r8, -#544]!
a3f85c50:	2022706c 	eorcs	r7, r2, ip, rrx
a3f85c54:	67206f74 	undefined
a3f85c58:	61207465 	teqvs	r0, r5, ror #8
a3f85c5c:	73696c20 	cmnvc	r9, #8192	; 0x2000
a3f85c60:	666f2074 	undefined
a3f85c64:	6d6f6320 	stcvsl	3, cr6, [pc, -#128]!
a3f85c68:	646e616d 	strvsbt	r6, [lr], -#365
a3f85c6c:	00000a73 	andeq	r0, r0, r3, ror sl
a3f85c70:	706c6568 	rsbvc	r6, ip, r8, ror #10
a3f85c74:	00000000 	andeq	r0, r0, r0
a3f85c78:	0000003f 	andeq	r0, r0, pc, lsr r0
a3f85c7c:	6b6e5509 	blvs	a5b1b0a8 <_ld_stack_address+0x1b1b0a8>
a3f85c80:	6e776f6e 	cdpvs	15, 7, cr6, cr7, cr14, {3}
a3f85c84:	6d6f6320 	stcvsl	3, cr6, [pc, -#128]!
a3f85c88:	646e616d 	strvsbt	r6, [lr], -#365
a3f85c8c:	25203a20 	strcs	r3, [r0, -#2592]!
a3f85c90:	00000a73 	andeq	r0, r0, r3, ror sl
a3f85c94:	706c6548 	rsbvc	r6, ip, r8, asr #10
a3f85c98:	726f6620 	rsbvc	r6, pc, #33554432	; 0x2000000
a3f85c9c:	59485820 	stmpldb	r8, {r5, fp, ip, lr}^
a3f85ca0:	32524550 	subccs	r4, r2, #335544320	; 0x14000000
a3f85ca4:	2d423535 	cfstr64cs	mvdx3, [r2, -#212]
a3f85ca8:	000a3152 	andeq	r3, sl, r2, asr r1
a3f85cac:	20656854 	rsbcs	r6, r5, r4, asr r8
a3f85cb0:	6c6c6f66 	stcvsl	15, cr6, [ip], -#408
a3f85cb4:	6e69776f 	cdpvs	7, 6, cr7, cr9, cr15, {3}
a3f85cb8:	6f632067 	swivs	0x00632067
a3f85cbc:	6e616d6d 	cdpvs	13, 6, cr6, cr1, cr13, {3}
a3f85cc0:	61207364 	teqvs	r0, r4, ror #6
a3f85cc4:	73206572 	teqvc	r0, #478150656	; 0x1c800000
a3f85cc8:	6f707075 	swivs	0x00707075
a3f85ccc:	64657472 	strvsbt	r7, [r5], -#1138
a3f85cd0:	000a3a20 	andeq	r3, sl, r0, lsr #20
a3f85cd4:	65682020 	strvsb	r2, [r8, -#32]!
a3f85cd8:	2020706c 	eorcs	r7, r0, ip, rrx
a3f85cdc:	20202020 	eorcs	r2, r0, r0, lsr #32
a3f85ce0:	20202020 	eorcs	r2, r0, r0, lsr #32
a3f85ce4:	20202020 	eorcs	r2, r0, r0, lsr #32
a3f85ce8:	20202020 	eorcs	r2, r0, r0, lsr #32
a3f85cec:	20202020 	eorcs	r2, r0, r0, lsr #32
a3f85cf0:	20202020 	eorcs	r2, r0, r0, lsr #32
a3f85cf4:	20202020 	eorcs	r2, r0, r0, lsr #32
a3f85cf8:	20202020 	eorcs	r2, r0, r0, lsr #32
a3f85cfc:	48202020 	stmmida	r0!, {r5, sp}
a3f85d00:	20706c65 	rsbcss	r6, r0, r5, ror #24
a3f85d04:	20726f66 	rsbcss	r6, r2, r6, ror #30
a3f85d08:	6d6d6f63 	stcvsl	15, cr6, [sp, -#396]!
a3f85d0c:	73646e61 	cmnvc	r4, #1552	; 0x610
a3f85d10:	00000a2e 	andeq	r0, r0, lr, lsr #20
a3f85d14:	252e6425 	strcs	r6, [lr, -#1061]!
a3f85d18:	64252e64 	strvst	r2, [r5], -#3684
a3f85d1c:	0064252e 	rsbeq	r2, r4, lr, lsr #10
a3f85d20:	00000020 	andeq	r0, r0, r0, lsr #32
a3f85d24:	78323025 	ldmvcda	r2!, {r0, r2, r5, ip, sp}
a3f85d28:	00000000 	andeq	r0, r0, r0
a3f85d2c:	6874450a 	ldmvsda	r4!, {r1, r3, r8, sl, lr}^
a3f85d30:	656e7265 	strvsb	r7, [lr, -#613]!
a3f85d34:	694c2074 	stmvsdb	ip, {r2, r4, r5, r6, sp}^
a3f85d38:	66206b6e 	strvst	r6, [r0], -lr, ror #22
a3f85d3c:	656c6961 	strvsb	r6, [ip, -#2401]!
a3f85d40:	43202e64 	teqmi	r0, #1600	; 0x640
a3f85d44:	6b636568 	blvs	a585f2ec <_ld_stack_address+0x185f2ec>
a3f85d48:	6e696c20 	cdpvs	12, 6, cr6, cr9, cr0, {1}
a3f85d4c:	000a2e65 	andeq	r2, sl, r5, ror #28
a3f85d50:	276e6143 	strcsb	r6, [lr, -r3, asr #2]!
a3f85d54:	63612074 	cmnvs	r1, #116	; 0x74
a3f85d58:	73736563 	cmnvc	r3, #415236096	; 0x18c00000
a3f85d5c:	206f7420 	rsbcs	r7, pc, r0, lsr #8
a3f85d60:	6f6d654d 	swivs	0x006d654d
a3f85d64:	6f207972 	swivs	0x00207972
a3f85d68:	53432066 	cmppl	r3, #102	; 0x66
a3f85d6c:	30303938 	eorccs	r3, r0, r8, lsr r9
a3f85d70:	000a2e41 	andeq	r2, sl, r1, asr #28
a3f85d74:	6874450a 	ldmvsda	r4!, {r1, r3, r8, sl, lr}^
a3f85d78:	656e7265 	strvsb	r7, [lr, -#613]!
a3f85d7c:	68432074 	stmvsda	r3, {r2, r4, r5, r6, sp}^
a3f85d80:	69207069 	stmvsdb	r0!, {r0, r3, r5, r6, ip, sp, lr}
a3f85d84:	6f6e2073 	swivs	0x006e2073
a3f85d88:	53432074 	cmppl	r3, #116	; 0x74
a3f85d8c:	30303938 	eorccs	r3, r0, r8, lsr r9
a3f85d90:	41202e41 	teqmi	r0, r1, asr #28
a3f85d94:	79206572 	stmvcdb	r0!, {r1, r4, r5, r6, r8, sl, sp, lr}
a3f85d98:	7520756f 	strvc	r7, [r0, -#1391]!
a3f85d9c:	43206573 	teqmi	r0, #482344960	; 0x1cc00000
a3f85da0:	30393853 	eorccs	r3, r9, r3, asr r8
a3f85da4:	0a2e4130 	beq	a4b1626c <_ld_stack_address+0xb1626c>
a3f85da8:	00000000 	andeq	r0, r0, r0
a3f85dac:	6e72656b 	cdpvs	5, 7, cr6, cr2, cr11, {3}
a3f85db0:	00006c65 	andeq	r6, r0, r5, ror #24
a3f85db4:	746f6f72 	strvcbt	r6, [pc], #3954	; a3f85dbc <Ldiv0+0x1344>
a3f85db8:	00000000 	andeq	r0, r0, r0
a3f85dbc:	64616f6c 	strvsbt	r6, [r1], -#3948
a3f85dc0:	00007265 	andeq	r7, r0, r5, ror #4
a3f85dc4:	646d6172 	strvsbt	r6, [sp], -#370
a3f85dc8:	006b7369 	rsbeq	r7, fp, r9, ror #6
a3f85dcc:	49206f4e 	stmmidb	r0!, {r1, r2, r3, r6, r8, r9, sl, fp, sp, lr}
a3f85dd0:	42202e50 	eormi	r2, r0, #1280	; 0x500
a3f85dd4:	70746f6f 	rsbvcs	r6, r4, pc, ror #30
a3f85dd8:	61747320 	cmnvs	r4, r0, lsr #6
a3f85ddc:	2e2e7472 	mcrcs	4, 1, r7, cr14, cr2, {3}
a3f85de0:	00000a2e 	andeq	r0, r0, lr, lsr #20
a3f85de4:	6f6f4209 	swivs	0x006f4209
a3f85de8:	66207074 	undefined
a3f85dec:	656c6961 	strvsb	r6, [ip, -#2401]!
a3f85df0:	74202e64 	strvct	r2, [r0], -#3684
a3f85df4:	61207972 	teqvs	r0, r2, ror r9
a3f85df8:	6e696167 	powvsez	f6, f1, f7
a3f85dfc:	00000a2e 	andeq	r0, r0, lr, lsr #20
a3f85e00:	746f6f62 	strvcbt	r6, [pc], #3938	; a3f85e08 <Ldiv0+0x1390>
a3f85e04:	6c696620 	stcvsl	6, cr6, [r9], -#128
a3f85e08:	616e2065 	cmnvs	lr, r5, rrx
a3f85e0c:	6920656d 	stmvsdb	r0!, {r0, r2, r3, r5, r6, r8, sl, sp, lr}
a3f85e10:	6f6e2073 	swivs	0x006e2073
a3f85e14:	78652074 	stmvcda	r5!, {r2, r4, r5, r6, sp}^
a3f85e18:	73747369 	cmnvc	r4, #-1543503871	; 0xa4000001
a3f85e1c:	00000a2e 	andeq	r0, r0, lr, lsr #20
a3f85e20:	50544654 	subpls	r4, r4, r4, asr r6
a3f85e24:	61745320 	cmnvs	r4, r0, lsr #6
a3f85e28:	2e2e7472 	mcrcs	4, 1, r7, cr14, cr2, {3}
a3f85e2c:	00000a2e 	andeq	r0, r0, lr, lsr #20
a3f85e30:	736f4809 	cmnvc	pc, #589824	; 0x90000
a3f85e34:	20202074 	eorcs	r2, r0, r4, ror r0
a3f85e38:	72657328 	rsbvc	r7, r5, #-1610612736	; 0xa0000000
a3f85e3c:	29726576 	ldmcsdb	r2!, {r1, r2, r4, r5, r6, r8, sl, sp, lr}^
a3f85e40:	20504920 	subcss	r4, r0, r0, lsr #18
a3f85e44:	20202020 	eorcs	r2, r0, r0, lsr #32
a3f85e48:	203a2020 	eorcss	r2, sl, r0, lsr #32
a3f85e4c:	00000000 	andeq	r0, r0, r0
a3f85e50:	0000000a 	andeq	r0, r0, sl
a3f85e54:	696c4309 	stmvsdb	ip!, {r0, r3, r8, r9, lr}^
a3f85e58:	20746e65 	rsbcss	r6, r4, r5, ror #28
a3f85e5c:	72617428 	rsbvc	r7, r1, #671088640	; 0x28000000
a3f85e60:	29746567 	ldmcsdb	r4!, {r0, r1, r2, r5, r6, r8, sl, sp, lr}^
a3f85e64:	20504920 	subcss	r4, r0, r0, lsr #18
a3f85e68:	20202020 	eorcs	r2, r0, r0, lsr #32
a3f85e6c:	203a2020 	eorcss	r2, sl, r0, lsr #32
a3f85e70:	00000000 	andeq	r0, r0, r0
a3f85e74:	616f4c09 	cmnvs	pc, r9, lsl #24
a3f85e78:	676e6964 	strvsb	r6, [lr, -r4, ror #18]!
a3f85e7c:	6c694620 	stcvsl	6, cr4, [r9], -#128
a3f85e80:	6d616e65 	stcvsl	14, cr6, [r1, -#404]!
a3f85e84:	20202065 	eorcs	r2, r0, r5, rrx
a3f85e88:	20202020 	eorcs	r2, r0, r0, lsr #32
a3f85e8c:	203a2020 	eorcss	r2, sl, r0, lsr #32
a3f85e90:	000a7325 	andeq	r7, sl, r5, lsr #6
a3f85e94:	76615309 	strvcbt	r5, [r1], -r9, lsl #6
a3f85e98:	64412065 	strvsb	r2, [r1], -#101
a3f85e9c:	73657264 	cmnvc	r5, #1073741830	; 0x40000006
a3f85ea0:	20202073 	eorcs	r2, r0, r3, ror r0
a3f85ea4:	20202020 	eorcs	r2, r0, r0, lsr #32
a3f85ea8:	20202020 	eorcs	r2, r0, r0, lsr #32
a3f85eac:	203a2020 	eorcss	r2, sl, r0, lsr #32
a3f85eb0:	30257830 	eorcc	r7, r5, r0, lsr r8
a3f85eb4:	0a786c38 	beq	a5da0f9c <_ld_stack_address+0x1da0f9c>
a3f85eb8:	00000000 	andeq	r0, r0, r0
a3f85ebc:	616f4c0a 	cmnvs	pc, sl, lsl #24
a3f85ec0:	676e6964 	strvsb	r6, [lr, -r4, ror #18]!
a3f85ec4:	61747320 	cmnvs	r4, r0, lsr #6
a3f85ec8:	2e2e7472 	mcrcs	4, 1, r7, cr14, cr2, {3}
a3f85ecc:	00000a2e 	andeq	r0, r0, lr, lsr #20
a3f85ed0:	6654090a 	ldrvsb	r0, [r4], -sl, lsl #18
a3f85ed4:	69207074 	stmvsdb	r0!, {r2, r4, r5, r6, ip, sp, lr}
a3f85ed8:	61662073 	cmnvs	r6, r3, ror r0
a3f85edc:	64656c69 	strvsbt	r6, [r5], -#3177
a3f85ee0:	7254202e 	subvcs	r2, r4, #46	; 0x2e
a3f85ee4:	67612079 	undefined
a3f85ee8:	2e6e6961 	cdpcs	9, 6, cr6, cr14, cr1, {3}
a3f85eec:	00000a0a 	andeq	r0, r0, sl, lsl #20
a3f85ef0:	6574636f 	ldrvsb	r6, [r4, -#879]!
a3f85ef4:	00000074 	andeq	r0, r0, r4, ror r0
a3f85ef8:	656c6946 	strvsb	r6, [ip, -#2374]!
a3f85efc:	6f6f7420 	swivs	0x006f7420
a3f85f00:	72616c20 	rsbvc	r6, r1, #8192	; 0x2000
a3f85f04:	00006567 	andeq	r6, r0, r7, ror #10
a3f85f08:	656c6946 	strvsb	r6, [ip, -#2374]!
a3f85f0c:	73616820 	cmnvc	r1, #2097152	; 0x200000
a3f85f10:	64616220 	strvsbt	r6, [r1], -#544
a3f85f14:	67616d20 	strvsb	r6, [r1, -r0, lsr #26]!
a3f85f18:	00006369 	andeq	r6, r0, r9, ror #6
a3f85f1c:	25783009 	ldrcsb	r3, [r8, -#9]!
a3f85f20:	786c3830 	stmvcda	ip!, {r4, r5, fp, ip, sp}^
a3f85f24:	74796220 	ldrvcbt	r6, [r9], -#544
a3f85f28:	72207365 	eorvc	r7, r0, #-1811939327	; 0x94000001
a3f85f2c:	69656365 	stmvsdb	r5!, {r0, r2, r5, r6, r8, r9, sp, lr}^
a3f85f30:	2e646576 	mcrcs	5, 3, r6, cr4, cr6, {3}
a3f85f34:	00000000 	andeq	r0, r0, r0
a3f85f38:	25783009 	ldrcsb	r3, [r8, -#9]!
a3f85f3c:	786c3830 	stmvcda	ip!, {r4, r5, fp, ip, sp}^
a3f85f40:	6c252820 	stcvs	8, cr2, [r5], -#128
a3f85f44:	62202964 	eorvs	r2, r0, #1638400	; 0x190000
a3f85f48:	73657479 	cmnvc	r5, #2030043136	; 0x79000000
a3f85f4c:	63657220 	cmnvs	r5, #2	; 0x2
a3f85f50:	65766965 	ldrvsb	r6, [r6, -#2405]!
a3f85f54:	000a2e64 	andeq	r2, sl, r4, ror #28
a3f85f58:	74667409 	strvcbt	r7, [r6], -#1033
a3f85f5c:	6f642070 	swivs	0x00642070
a3f85f60:	0a2e656e 	beq	a4b1f520 <_ld_stack_address+0xb1f520>
a3f85f64:	0000000a 	andeq	r0, r0, sl
a3f85f68:	5446540a 	strplb	r5, [r6], -#1034
a3f85f6c:	72652050 	rsbvc	r2, r5, #80	; 0x50
a3f85f70:	3a726f72 	bcc	a5c21d40 <_ld_stack_address+0x1c21d40>
a3f85f74:	73252720 	teqvc	r5, #8388608	; 0x800000
a3f85f78:	25282027 	strcs	r2, [r8, -#39]!
a3f85f7c:	000a2964 	andeq	r2, sl, r4, ror #18
a3f85f80:	656c6c49 	strvsb	r6, [ip, -#3145]!
a3f85f84:	206c6167 	rsbcs	r6, ip, r7, ror #2
a3f85f88:	72616863 	rsbvc	r6, r1, #6488064	; 0x630000
a3f85f8c:	65746361 	ldrvsb	r6, [r4, -#865]!
a3f85f90:	73692072 	cmnvc	r9, #114	; 0x72
a3f85f94:	65737520 	ldrvsb	r7, [r3, -#1312]!
a3f85f98:	000a2e64 	andeq	r2, sl, r4, ror #28
a3f85f9c:	00007830 	andeq	r7, r0, r0, lsr r8
a3f85fa0:	78323025 	ldmvcda	r2!, {r0, r2, r5, ip, sp}
a3f85fa4:	00000000 	andeq	r0, r0, r0
a3f85fa8:	00002020 	andeq	r2, r0, r0, lsr #32
a3f85fac:	0000000a 	andeq	r0, r0, sl
a3f85fb0:	756c6c49 	strvcb	r6, [ip, -#3145]!
a3f85fb4:	206c6167 	rsbcs	r6, ip, r7, ror #2
a3f85fb8:	72616863 	rsbvc	r6, r1, #6488064	; 0x630000
a3f85fbc:	65746361 	ldrvsb	r6, [r4, -#865]!
a3f85fc0:	73692072 	cmnvc	r9, #114	; 0x72
a3f85fc4:	65737520 	ldrvsb	r7, [r3, -#1312]!
a3f85fc8:	000a2e64 	andeq	r2, sl, r4, ror #28
a3f85fcc:	69757165 	ldmvsdb	r5!, {r0, r2, r5, r6, r8, ip, sp, lr}^
a3f85fd0:	000a2e6c 	andeq	r2, sl, ip, ror #28
a3f85fd4:	20746f6e 	rsbcss	r6, r4, lr, ror #30
a3f85fd8:	69757165 	ldmvsdb	r5!, {r0, r2, r5, r6, r8, ip, sp, lr}^
a3f85fdc:	000a2e6c 	andeq	r2, sl, ip, ror #28
a3f85fe0:	64646109 	strvsbt	r6, [r4], -#265
a3f85fe4:	73736572 	cmnvc	r3, #478150656	; 0x1c800000
a3f85fe8:	30203a20 	eorcc	r3, r0, r0, lsr #20
a3f85fec:	38302578 	ldmccda	r0!, {r3, r4, r5, r6, r8, sl, sp}
a3f85ff0:	000a786c 	andeq	r7, sl, ip, ror #16
a3f85ff4:	6c617609 	stcvsl	6, cr7, [r1], -#36
a3f85ff8:	20206575 	eorcs	r6, r0, r5, ror r5
a3f85ffc:	30203a20 	eorcc	r3, r0, r0, lsr #20
a3f86000:	00000078 	andeq	r0, r0, r8, ror r0
a3f86004:	78343025 	ldmvcda	r4!, {r0, r2, r5, ip, sp}
a3f86008:	00000000 	andeq	r0, r0, r0
a3f8600c:	6c383025 	ldcvs	0, cr3, [r8], -#148
a3f86010:	00000078 	andeq	r0, r0, r8, ror r0
a3f86014:	6f727245 	swivs	0x00727245
a3f86018:	000a2e72 	andeq	r2, sl, r2, ror lr
a3f8601c:	00000a2e 	andeq	r0, r0, lr, lsr #20
a3f86020:	756c6c49 	strvcb	r6, [ip, -#3145]!
a3f86024:	206c6167 	rsbcs	r6, ip, r7, ror #2
a3f86028:	72616863 	rsbvc	r6, r1, #6488064	; 0x630000
a3f8602c:	65746361 	ldrvsb	r6, [r4, -#865]!
a3f86030:	73692072 	cmnvc	r9, #114	; 0x72
a3f86034:	65737520 	ldrvsb	r7, [r3, -#1312]!
a3f86038:	0a2e6471 	beq	a4b1f204 <_ld_stack_address+0xb1f204>
a3f8603c:	00000000 	andeq	r0, r0, r0
a3f86040:	74697277 	strvcbt	r7, [r9], -#631
a3f86044:	635b2065 	cmpvs	fp, #101	; 0x65
a3f86048:	6c2f732f 	stcvs	3, cr7, [pc], -#188
a3f8604c:	615b205d 	cmpvs	fp, sp, asr r0
a3f86050:	5d726464 	cfldrdpl	mvd6, [r2, -#400]!
a3f86054:	61765b20 	cmnvs	r6, r0, lsr #22
a3f86058:	5d65756c 	cfstr64pl	mvdx7, [r5, -#432]!
a3f8605c:	00000a2e 	andeq	r0, r0, lr, lsr #20
a3f86060:	64616f6c 	strvsbt	r6, [r1], -#3948
a3f86064:	00007265 	andeq	r7, r0, r5, ror #4
a3f86068:	6e72656b 	cdpvs	5, 7, cr6, cr2, cr11, {3}
a3f8606c:	00006c65 	andeq	r6, r0, r5, ror #24
a3f86070:	646d6172 	strvsbt	r6, [sp], -#370
a3f86074:	006b7369 	rsbeq	r7, fp, r9, ror #6
a3f86078:	746f6f72 	strvcbt	r6, [pc], #3954	; a3f86080 <Ldiv0+0x1608>
a3f8607c:	00000000 	andeq	r0, r0, r0
a3f86080:	6e776f44 	cdpvs	15, 7, cr6, cr7, cr4, {2}
a3f86084:	64616f6c 	strvsbt	r6, [r1], -#3948
a3f86088:	65707320 	ldrvsb	r7, [r0, -#800]!
a3f8608c:	69206465 	stmvsdb	r0!, {r0, r2, r5, r6, sl, sp, lr}
a3f86090:	6c252073 	stcvs	0, cr2, [r5], -#460
a3f86094:	61622064 	cmnvs	r2, r4, rrx
a3f86098:	0a2e6475 	beq	a4b1f274 <_ld_stack_address+0xb1f274>
a3f8609c:	00000000 	andeq	r0, r0, r0
a3f860a0:	63657865 	cmnvs	r5, #6619136	; 0x650000
a3f860a4:	75752220 	ldrvcb	r2, [r5, -#544]!
a3f860a8:	6f636e65 	swivs	0x00636e65
a3f860ac:	20226564 	eorcs	r6, r2, r4, ror #10
a3f860b0:	48207461 	stmmida	r0!, {r0, r5, r6, sl, ip, sp, lr}
a3f860b4:	2074736f 	rsbcss	r7, r4, pc, ror #6
a3f860b8:	0a204350 	beq	a4796e00 <_ld_stack_address+0x796e00>
a3f860bc:	00000000 	andeq	r0, r0, r0
a3f860c0:	65647555 	strvsb	r7, [r4, -#1365]!
a3f860c4:	65646f63 	strvsb	r6, [r4, -#3939]!
a3f860c8:	63657220 	cmnvs	r5, #2	; 0x2
a3f860cc:	65766965 	ldrvsb	r6, [r6, -#2405]!
a3f860d0:	69616620 	stmvsdb	r1!, {r5, r9, sl, sp, lr}^
a3f860d4:	2064656c 	rsbcs	r6, r4, ip, ror #10
a3f860d8:	0a265e5e 	beq	a491da58 <_ld_stack_address+0x91da58>
a3f860dc:	00000000 	andeq	r0, r0, r0
a3f860e0:	65636552 	strvsb	r6, [r3, -#1362]!
a3f860e4:	64657669 	strvsbt	r7, [r5], -#1641
a3f860e8:	25783020 	ldrcsb	r3, [r8, -#32]!
a3f860ec:	786c3830 	stmvcda	ip!, {r4, r5, fp, ip, sp}^
a3f860f0:	6c252820 	stcvs	8, cr2, [r5], -#128
a3f860f4:	62202964 	eorvs	r2, r0, #1638400	; 0x190000
a3f860f8:	73657479 	cmnvc	r5, #2030043136	; 0x79000000
a3f860fc:	0000002e 	andeq	r0, r0, lr, lsr #32
a3f86100:	0000000a 	andeq	r0, r0, sl
a3f86104:	2a2a2a0a 	bcs	a4a10934 <_ld_stack_address+0xa10934>
a3f86108:	6d695420 	cfstrdvs	mvd5, [r9, -#128]!
a3f8610c:	74756f65 	ldrvcbt	r6, [r5], -#3941
a3f86110:	63786520 	cmnvs	r8, #134217728	; 0x8000000
a3f86114:	65646565 	strvsb	r6, [r4, -#1381]!
a3f86118:	41202e64 	teqmi	r0, r4, ror #28
a3f8611c:	74726f62 	ldrvcbt	r6, [r2], -#3938
a3f86120:	2e676e69 	cdpcs	14, 6, cr6, cr7, cr9, {3}
a3f86124:	0000000a 	andeq	r0, r0, sl
a3f86128:	69676562 	stmvsdb	r7!, {r1, r5, r6, r8, sl, sp, lr}^
a3f8612c:	0000206e 	andeq	r2, r0, lr, rrx
a3f86130:	5e5e260a 	cdppl	6, 5, cr2, cr14, cr10, {0}
a3f86134:	6f685320 	swivs	0x00685320
a3f86138:	66207472 	undefined
a3f8613c:	2e656c69 	cdpcs	12, 6, cr6, cr5, cr9, {3}
a3f86140:	6f624120 	swivs	0x00624120
a3f86144:	6e697472 	mcrvs	4, 3, r7, cr9, cr2, {3}
a3f86148:	5e5e2067 	cdppl	0, 5, cr2, cr14, cr7, {3}
a3f8614c:	00000a26 	andeq	r0, r0, r6, lsr #20
a3f86150:	0000002e 	andeq	r0, r0, lr, lsr #32
a3f86154:	5e5e260a 	cdppl	6, 5, cr2, cr14, cr10, {0}
a3f86158:	63655220 	cmnvs	r5, #2	; 0x2
a3f8615c:	65766965 	ldrvsb	r6, [r6, -#2405]!
a3f86160:	68632064 	stmvsda	r3!, {r2, r5, r6, sp}^
a3f86164:	63617261 	cmnvs	r1, #268435462	; 0x10000006
a3f86168:	20726574 	rsbcss	r6, r2, r4, ror r5
a3f8616c:	2074756f 	rsbcss	r7, r4, pc, ror #10
a3f86170:	7220666f 	eorvc	r6, r0, #116391936	; 0x6f00000
a3f86174:	65676e61 	strvsb	r6, [r7, -#3681]!
a3f86178:	6241202e 	subvs	r2, r1, #46	; 0x2e
a3f8617c:	6974726f 	ldmvsdb	r4!, {r0, r1, r2, r3, r5, r6, r9, ip, sp, lr}^
a3f86180:	202e676e 	eorcs	r6, lr, lr, ror #14
a3f86184:	0a265e5e 	beq	a491db04 <_ld_stack_address+0x91db04>
a3f86188:	00000000 	andeq	r0, r0, r0
a3f8618c:	00646e65 	rsbeq	r6, r4, r5, ror #28
a3f86190:	205e5e26 	subcss	r5, lr, r6, lsr #28
a3f86194:	22206f4e 	eorcs	r6, r0, #312	; 0x138
a3f86198:	22646e65 	rsbcs	r6, r4, #1616	; 0x650
a3f8619c:	6e696c20 	cdpvs	12, 6, cr6, cr9, cr0, {1}
a3f861a0:	41202e65 	teqmi	r0, r5, ror #28
a3f861a4:	74726f62 	ldrvcbt	r6, [r2], -#3938
a3f861a8:	2e676e69 	cdpcs	14, 6, cr6, cr7, cr9, {3}
a3f861ac:	265e5e20 	ldrcsb	r5, [lr], -r0, lsr #28
a3f861b0:	0000000a 	andeq	r0, r0, sl
a3f861b4:	6165520d 	cmnvs	r5, sp, lsl #4
a3f861b8:	66207964 	strvst	r7, [r0], -r4, ror #18
a3f861bc:	7820726f 	stmvcda	r0!, {r0, r1, r2, r3, r5, r6, r9, ip, sp, lr}
a3f861c0:	65646f6d 	strvsb	r6, [r4, -#3949]!
a3f861c4:	6f64206d 	swivs	0x0064206d
a3f861c8:	6f6c6e77 	swivs	0x006c6e77
a3f861cc:	2e2e6461 	cdpcs	4, 2, cr6, cr14, cr1, {3}
a3f861d0:	0000000a 	andeq	r0, r0, sl
a3f861d4:	64616f6c 	strvsbt	r6, [r1], -#3948
a3f861d8:	00007265 	andeq	r7, r0, r5, ror #4
a3f861dc:	6e72656b 	cdpvs	5, 7, cr6, cr2, cr11, {3}
a3f861e0:	00006c65 	andeq	r6, r0, r5, ror #24
a3f861e4:	646d6172 	strvsbt	r6, [sp], -#370
a3f861e8:	006b7369 	rsbeq	r7, fp, r9, ror #6
a3f861ec:	746f6f72 	strvcbt	r6, [pc], #3954	; a3f861f4 <Ldiv0+0x177c>
a3f861f0:	00000000 	andeq	r0, r0, r0
a3f861f4:	65636552 	strvsb	r6, [r3, -#1362]!
a3f861f8:	64657669 	strvsbt	r7, [r5], -#1641
a3f861fc:	72647320 	rsbvc	r7, r4, #-2147483648	; 0x80000000
a3f86200:	61206d61 	teqvs	r0, r1, ror #26
a3f86204:	20726464 	rsbcss	r6, r2, r4, ror #8
a3f86208:	30257830 	eorcc	r7, r5, r0, lsr r8
a3f8620c:	20786c38 	rsbcss	r6, r8, r8, lsr ip
a3f86210:	0000000a 	andeq	r0, r0, sl
Disassembly of section .glue_7:
Disassembly of section .glue_7t:
Disassembly of section .data:

a3f86214 <_ld_data_start>:
a3f86214:	00440043 	subeq	r0, r4, r3, asr #32

a3f86216 <bootpc>:
a3f86216:	ffff0044 	swinv	0x00ff0044

a3f86218 <broadcastEther>:
a3f86218:	ffffffff 	swinv	0x00ffffff
a3f8621c:	0000ffff 	streqd	pc, [r0], -pc

a3f86220 <broadcastIP>:
a3f86220:	ffffffff 	swinv	0x00ffffff

a3f86224 <noIP>:
a3f86224:	00000000 	andeq	r0, r0, r0

a3f86228 <cmdTbl>:
a3f86228:	a3f85750 	mvnges	r5, #20971520	; 0x1400000
a3f8622c:	a3f83ca8 	mvnges	r3, #43008	; 0xa800
a3f86230:	a3f856b0 	mvnges	r5, #184549376	; 0xb000000
a3f86234:	a3f85660 	mvnges	r5, #100663296	; 0x6000000
a3f86238:	a3f856b0 	mvnges	r5, #184549376	; 0xb000000
a3f8623c:	a3f8565c 	mvnges	r5, #96468992	; 0x5c00000
a3f86240:	a3f846d4 	mvnges	r4, #222298112	; 0xd400000
a3f86244:	a3f8560c 	mvnges	r5, #12582912	; 0xc00000
a3f86248:	00000000 	andeq	r0, r0, r0
a3f8624c:	a3f8560c 	mvnges	r5, #12582912	; 0xc00000
a3f86250:	a3f85604 	mvnges	r5, #4194304	; 0x400000
a3f86254:	a3f80adc 	mvnges	r0, #901120	; 0xdc000
a3f86258:	a3f855bc 	mvnges	r5, #788529152	; 0x2f000000
a3f8625c:	a3f855bc 	mvnges	r5, #788529152	; 0x2f000000
a3f86260:	00000000 	andeq	r0, r0, r0
a3f86264:	a3f855b4 	mvnges	r5, #754974720	; 0x2d000000
a3f86268:	a3f80308 	mvnges	r0, #536870912	; 0x20000000
a3f8626c:	a3f85560 	mvnges	r5, #402653184	; 0x18000000
a3f86270:	00000000 	andeq	r0, r0, r0
a3f86274:	a3f85560 	mvnges	r5, #402653184	; 0x18000000
a3f86278:	a3f85558 	mvnges	r5, #369098752	; 0x16000000
a3f8627c:	a3f82ecc 	mvnges	r2, #3264	; 0xcc0
a3f86280:	a3f854b4 	mvnges	r5, #-1275068416	; 0xb4000000
a3f86284:	a3f85460 	mvnges	r5, #1610612736	; 0x60000000
a3f86288:	a3f854b4 	mvnges	r5, #-1275068416	; 0xb4000000
a3f8628c:	a3f85458 	mvnges	r5, #1476395008	; 0x58000000
a3f86290:	a3f80c24 	mvnges	r0, #9216	; 0x2400
a3f86294:	a3f853bc 	mvnges	r5, #-268435454	; 0xf0000002
a3f86298:	a3f85374 	mvnges	r5, #-805306367	; 0xd0000001
a3f8629c:	a3f853bc 	mvnges	r5, #-268435454	; 0xf0000002
a3f862a0:	a3f8536c 	mvnges	r5, #-1342177279	; 0xb0000001
a3f862a4:	a3f81010 	mvnges	r1, #16	; 0x10
a3f862a8:	a3f852a0 	mvnges	r5, #10	; 0xa
a3f862ac:	00000000 	andeq	r0, r0, r0
a3f862b0:	a3f852a0 	mvnges	r5, #10	; 0xa
a3f862b4:	a3f85298 	mvnges	r5, #-2147483639	; 0x80000009
a3f862b8:	a3f811fc 	mvnges	r1, #63	; 0x3f
a3f862bc:	a3f851b8 	mvnges	r5, #46	; 0x2e
a3f862c0:	a3f85170 	mvnges	r5, #28	; 0x1c
a3f862c4:	a3f851b8 	mvnges	r5, #46	; 0x2e
a3f862c8:	a3f85168 	mvnges	r5, #26	; 0x1a
a3f862cc:	a3f81350 	mvnges	r1, #1073741825	; 0x40000001
a3f862d0:	a3f85120 	mvnges	r5, #8	; 0x8
a3f862d4:	a3f85120 	mvnges	r5, #8	; 0x8
a3f862d8:	a3f85120 	mvnges	r5, #8	; 0x8
a3f862dc:	a3f85118 	mvnges	r5, #6	; 0x6
a3f862e0:	a3f809b4 	mvnges	r0, #2949120	; 0x2d0000
a3f862e4:	a3f850d8 	mvnges	r5, #216	; 0xd8
a3f862e8:	a3f850d8 	mvnges	r5, #216	; 0xd8
a3f862ec:	00000000 	andeq	r0, r0, r0
a3f862f0:	a3f850d0 	mvnges	r5, #208	; 0xd0
a3f862f4:	a3f83664 	mvnges	r3, #104857600	; 0x6400000
a3f862f8:	a3f85080 	mvnges	r5, #128	; 0x80
a3f862fc:	00000000 	andeq	r0, r0, r0
a3f86300:	a3f85080 	mvnges	r5, #128	; 0x80
a3f86304:	a3f85078 	mvnges	r5, #120	; 0x78
a3f86308:	a3f8370c 	mvnges	r3, #3145728	; 0x300000
a3f8630c:	a3f8503c 	mvnges	r5, #60	; 0x3c
a3f86310:	00000000 	andeq	r0, r0, r0
a3f86314:	a3f8503c 	mvnges	r5, #60	; 0x3c
a3f86318:	a3f85034 	mvnges	r5, #52	; 0x34
a3f8631c:	a3f8382c 	mvnges	r3, #2883584	; 0x2c0000
a3f86320:	a3f84ff8 	mvnges	r4, #992	; 0x3e0
a3f86324:	00000000 	andeq	r0, r0, r0
a3f86328:	a3f84ff8 	mvnges	r4, #992	; 0x3e0
a3f8632c:	a3f84ff0 	mvnges	r4, #960	; 0x3c0
a3f86330:	a3f838b8 	mvnges	r3, #12058624	; 0xb80000
a3f86334:	a3f84fa0 	mvnges	r4, #640	; 0x280
a3f86338:	00000000 	andeq	r0, r0, r0
a3f8633c:	a3f84fa0 	mvnges	r4, #640	; 0x280
a3f86340:	a3f84f98 	mvnges	r4, #608	; 0x260
a3f86344:	a3f8398c 	mvnges	r3, #2293760	; 0x230000
a3f86348:	a3f84f54 	mvnges	r4, #336	; 0x150
a3f8634c:	00000000 	andeq	r0, r0, r0
a3f86350:	a3f84f54 	mvnges	r4, #336	; 0x150
a3f86354:	a3f84f4c 	mvnges	r4, #304	; 0x130
a3f86358:	a3f83b78 	mvnges	r3, #122880	; 0x1e000
a3f8635c:	a3f84efc 	mvnges	r4, #4032	; 0xfc0
a3f86360:	00000000 	andeq	r0, r0, r0
a3f86364:	a3f84efc 	mvnges	r4, #4032	; 0xfc0
a3f86368:	a3f84ef4 	mvnges	r4, #3904	; 0xf40
a3f8636c:	a3f83a34 	mvnges	r3, #212992	; 0x34000
a3f86370:	a3f84ea4 	mvnges	r4, #2624	; 0xa40
a3f86374:	00000000 	andeq	r0, r0, r0
a3f86378:	a3f84ea4 	mvnges	r4, #2624	; 0xa40
a3f8637c:	a3f84e9c 	mvnges	r4, #2496	; 0x9c0
a3f86380:	a3f80bdc 	mvnges	r0, #225280	; 0x37000
a3f86384:	a3f84e5c 	mvnges	r4, #1472	; 0x5c0
a3f86388:	00000000 	andeq	r0, r0, r0
a3f8638c:	a3f84e5c 	mvnges	r4, #1472	; 0x5c0
a3f86390:	a3f84e54 	mvnges	r4, #1344	; 0x540
a3f86394:	a3f80aa0 	mvnges	r0, #655360	; 0xa0000
a3f86398:	a3f84e14 	mvnges	r4, #320	; 0x140
a3f8639c:	00000000 	andeq	r0, r0, r0
a3f863a0:	a3f84e14 	mvnges	r4, #320	; 0x140
a3f863a4:	a3f84e0c 	mvnges	r4, #192	; 0xc0
a3f863a8:	a3f80c1c 	mvnges	r0, #7168	; 0x1c00
	...

a3f863cc <hostEther>:
a3f863cc:	ffffffff 	swinv	0x00ffffff
a3f863d0:	0000ffff 	streqd	pc, [r0], -pc

a3f863d4 <hostIP>:
a3f863d4:	00000000 	andeq	r0, r0, r0

a3f863d8 <clientEther>:
a3f863d8:	82828258 	addhi	r8, r2, #-2147483643	; 0x80000005
a3f863dc:	00005858 	andeq	r5, r0, r8, asr r8

a3f863e0 <clientIP>:
a3f863e0:	00000000 	andeq	r0, r0, r0

a3f863e4 <protocol>:
a3f863e4:	00000000 	andeq	r0, r0, r0

a3f863e8 <tftpState>:
	...

a3f863ea <tftpBlock>:
	...

a3f863ec <tftpLastBlock>:
a3f863ec:	00000000 	andeq	r0, r0, r0

a3f863f0 <loadAddr>:
a3f863f0:	00000000 	andeq	r0, r0, r0

a3f863f4 <tftpPort>:
a3f863f4:	00000045 	andeq	r0, r0, r5, asr #32

a3f863f6 <tftpHostPort>:
	...

a3f863f8 <tftpClientPort>:
a3f863f8:	00001e61 	andeq	r1, r0, r1, ror #28
Disassembly of section .got.plt:

a3f863fc <_GLOBAL_OFFSET_TABLE_>:
	...
